
PKES1.elf:     file format elf32-avr

Sections:
Idx Name          Size      VMA       LMA       File off  Algn
  0 .data         000000a2  00800200  00000f98  0000102c  2**0
                  CONTENTS, ALLOC, LOAD, DATA
  1 .text         00000f98  00000000  00000000  00000094  2**1
                  CONTENTS, ALLOC, LOAD, READONLY, CODE
  2 .bss          00000003  008002a2  008002a2  000010ce  2**0
                  ALLOC
  3 .stab         00003978  00000000  00000000  000010d0  2**2
                  CONTENTS, READONLY, DEBUGGING
  4 .stabstr      000015ad  00000000  00000000  00004a48  2**0
                  CONTENTS, READONLY, DEBUGGING
  5 .comment      00000011  00000000  00000000  00005ff5  2**0
                  CONTENTS, READONLY

Disassembly of section .text:

00000000 <__vectors>:
   0:	0c 94 ef 00 	jmp	0x1de	; 0x1de <__ctors_end>
   4:	0c 94 10 01 	jmp	0x220	; 0x220 <__bad_interrupt>
   8:	0c 94 10 01 	jmp	0x220	; 0x220 <__bad_interrupt>
   c:	0c 94 10 01 	jmp	0x220	; 0x220 <__bad_interrupt>
  10:	0c 94 10 01 	jmp	0x220	; 0x220 <__bad_interrupt>
  14:	0c 94 10 01 	jmp	0x220	; 0x220 <__bad_interrupt>
  18:	0c 94 10 01 	jmp	0x220	; 0x220 <__bad_interrupt>
  1c:	0c 94 10 01 	jmp	0x220	; 0x220 <__bad_interrupt>
  20:	0c 94 10 01 	jmp	0x220	; 0x220 <__bad_interrupt>
  24:	0c 94 10 01 	jmp	0x220	; 0x220 <__bad_interrupt>
  28:	0c 94 10 01 	jmp	0x220	; 0x220 <__bad_interrupt>
  2c:	0c 94 10 01 	jmp	0x220	; 0x220 <__bad_interrupt>
  30:	0c 94 10 01 	jmp	0x220	; 0x220 <__bad_interrupt>
  34:	0c 94 10 01 	jmp	0x220	; 0x220 <__bad_interrupt>
  38:	0c 94 10 01 	jmp	0x220	; 0x220 <__bad_interrupt>
  3c:	0c 94 10 01 	jmp	0x220	; 0x220 <__bad_interrupt>
  40:	0c 94 10 01 	jmp	0x220	; 0x220 <__bad_interrupt>
  44:	0c 94 10 01 	jmp	0x220	; 0x220 <__bad_interrupt>
  48:	0c 94 10 01 	jmp	0x220	; 0x220 <__bad_interrupt>
  4c:	0c 94 10 01 	jmp	0x220	; 0x220 <__bad_interrupt>
  50:	0c 94 10 01 	jmp	0x220	; 0x220 <__bad_interrupt>
  54:	0c 94 10 01 	jmp	0x220	; 0x220 <__bad_interrupt>
  58:	0c 94 10 01 	jmp	0x220	; 0x220 <__bad_interrupt>
  5c:	0c 94 10 01 	jmp	0x220	; 0x220 <__bad_interrupt>
  60:	0c 94 10 01 	jmp	0x220	; 0x220 <__bad_interrupt>
  64:	0c 94 10 01 	jmp	0x220	; 0x220 <__bad_interrupt>
  68:	0c 94 10 01 	jmp	0x220	; 0x220 <__bad_interrupt>
  6c:	0c 94 10 01 	jmp	0x220	; 0x220 <__bad_interrupt>
  70:	0c 94 10 01 	jmp	0x220	; 0x220 <__bad_interrupt>
  74:	0c 94 10 01 	jmp	0x220	; 0x220 <__bad_interrupt>
  78:	0c 94 10 01 	jmp	0x220	; 0x220 <__bad_interrupt>
  7c:	0c 94 10 01 	jmp	0x220	; 0x220 <__bad_interrupt>
  80:	0c 94 10 01 	jmp	0x220	; 0x220 <__bad_interrupt>
  84:	0c 94 10 01 	jmp	0x220	; 0x220 <__bad_interrupt>
  88:	0c 94 10 01 	jmp	0x220	; 0x220 <__bad_interrupt>
  8c:	0c 94 10 01 	jmp	0x220	; 0x220 <__bad_interrupt>
  90:	0c 94 10 01 	jmp	0x220	; 0x220 <__bad_interrupt>
  94:	0c 94 10 01 	jmp	0x220	; 0x220 <__bad_interrupt>
  98:	0c 94 10 01 	jmp	0x220	; 0x220 <__bad_interrupt>
  9c:	0c 94 10 01 	jmp	0x220	; 0x220 <__bad_interrupt>
  a0:	0c 94 10 01 	jmp	0x220	; 0x220 <__bad_interrupt>
  a4:	0c 94 10 01 	jmp	0x220	; 0x220 <__bad_interrupt>
  a8:	0c 94 10 01 	jmp	0x220	; 0x220 <__bad_interrupt>
  ac:	0c 94 10 01 	jmp	0x220	; 0x220 <__bad_interrupt>
  b0:	0c 94 10 01 	jmp	0x220	; 0x220 <__bad_interrupt>
  b4:	0c 94 10 01 	jmp	0x220	; 0x220 <__bad_interrupt>
  b8:	0c 94 10 01 	jmp	0x220	; 0x220 <__bad_interrupt>
  bc:	0c 94 10 01 	jmp	0x220	; 0x220 <__bad_interrupt>
  c0:	0c 94 10 01 	jmp	0x220	; 0x220 <__bad_interrupt>
  c4:	0c 94 10 01 	jmp	0x220	; 0x220 <__bad_interrupt>
  c8:	0c 94 10 01 	jmp	0x220	; 0x220 <__bad_interrupt>
  cc:	0c 94 10 01 	jmp	0x220	; 0x220 <__bad_interrupt>
  d0:	0c 94 10 01 	jmp	0x220	; 0x220 <__bad_interrupt>
  d4:	0c 94 10 01 	jmp	0x220	; 0x220 <__bad_interrupt>
  d8:	0c 94 10 01 	jmp	0x220	; 0x220 <__bad_interrupt>
  dc:	0c 94 10 01 	jmp	0x220	; 0x220 <__bad_interrupt>
  e0:	0c 94 10 01 	jmp	0x220	; 0x220 <__bad_interrupt>
  e4:	00 40       	sbci	r16, 0x00	; 0
  e6:	7a 10       	cpse	r7, r10
  e8:	f3 5a       	subi	r31, 0xA3	; 163
  ea:	00 a0       	ldd	r0, Z+32	; 0x20
  ec:	72 4e       	sbci	r23, 0xE2	; 226
  ee:	18 09       	sbc	r17, r8
  f0:	00 10       	cpse	r0, r0
  f2:	a5 d4       	rcall	.+2378   	; 0xa3e <dtoa_prf+0x90>
  f4:	e8 00       	.word	0x00e8	; ????
  f6:	00 e8       	ldi	r16, 0x80	; 128
  f8:	76 48       	sbci	r23, 0x86	; 134
  fa:	17 00       	.word	0x0017	; ????
  fc:	00 e4       	ldi	r16, 0x40	; 64
  fe:	0b 54       	subi	r16, 0x4B	; 75
 100:	02 00       	.word	0x0002	; ????
 102:	00 ca       	rjmp	.-3072   	; 0xfffff504 <__eeprom_end+0xff7ef504>
 104:	9a 3b       	cpi	r25, 0xBA	; 186
 106:	00 00       	nop
 108:	00 e1       	ldi	r16, 0x10	; 16
 10a:	f5 05       	cpc	r31, r5
 10c:	00 00       	nop
 10e:	80 96       	adiw	r24, 0x20	; 32
 110:	98 00       	.word	0x0098	; ????
 112:	00 00       	nop
 114:	40 42       	sbci	r20, 0x20	; 32
 116:	0f 00       	.word	0x000f	; ????
 118:	00 00       	nop
 11a:	a0 86       	std	Z+8, r10	; 0x08
 11c:	01 00       	.word	0x0001	; ????
 11e:	00 00       	nop
 120:	10 27       	eor	r17, r16
 122:	00 00       	nop
 124:	00 00       	nop
 126:	e8 03       	fmulsu	r22, r16
 128:	00 00       	nop
 12a:	00 00       	nop
 12c:	64 00       	.word	0x0064	; ????
 12e:	00 00       	nop
 130:	00 00       	nop
 132:	0a 00       	.word	0x000a	; ????
 134:	00 00       	nop
 136:	00 00       	nop
 138:	01 00       	.word	0x0001	; ????
 13a:	00 00       	nop
 13c:	00 00       	nop
 13e:	2c 76       	andi	r18, 0x6C	; 108
 140:	d8 88       	ldd	r13, Y+16	; 0x10
 142:	dc 67       	ori	r29, 0x7C	; 124
 144:	4f 08       	sbc	r4, r15
 146:	23 df       	rcall	.-442    	; 0xffffff8e <__eeprom_end+0xff7eff8e>
 148:	c1 df       	rcall	.-126    	; 0xcc <__SREG__+0x8d>
 14a:	ae 59       	subi	r26, 0x9E	; 158
 14c:	e1 b1       	in	r30, 0x01	; 1
 14e:	b7 96       	adiw	r30, 0x27	; 39
 150:	e5 e3       	ldi	r30, 0x35	; 53
 152:	e4 53       	subi	r30, 0x34	; 52
 154:	c6 3a       	cpi	r28, 0xA6	; 166
 156:	e6 51       	subi	r30, 0x16	; 22
 158:	99 76       	andi	r25, 0x69	; 105
 15a:	96 e8       	ldi	r25, 0x86	; 134
 15c:	e6 c2       	rjmp	.+1484   	; 0x72a <vfprintf+0x188>
 15e:	84 26       	eor	r8, r20
 160:	eb 89       	ldd	r30, Y+19	; 0x13
 162:	8c 9b       	sbis	0x11, 4	; 17
 164:	62 ed       	ldi	r22, 0xD2	; 210
 166:	40 7c       	andi	r20, 0xC0	; 192
 168:	6f fc       	.word	0xfc6f	; ????
 16a:	ef bc       	out	0x2f, r14	; 47
 16c:	9c 9f       	mul	r25, r28
 16e:	40 f2       	brcs	.-112    	; 0x100 <__SREG__+0xc1>
 170:	ba a5       	ldd	r27, Y+42	; 0x2a
 172:	6f a5       	ldd	r22, Y+47	; 0x2f
 174:	f4 90       	lpm	r15, Z+
 176:	05 5a       	subi	r16, 0xA5	; 165
 178:	2a f7       	brpl	.-54     	; 0x144 <__SREG__+0x105>
 17a:	5c 93       	st	X, r21
 17c:	6b 6c       	ori	r22, 0xCB	; 203
 17e:	f9 67       	ori	r31, 0x79	; 121
 180:	6d c1       	rjmp	.+730    	; 0x45c <main+0x9c>
 182:	1b fc       	.word	0xfc1b	; ????
 184:	e0 e4       	ldi	r30, 0x40	; 64
 186:	0d 47       	sbci	r16, 0x7D	; 125
 188:	fe f5       	brtc	.+126    	; 0x208 <__do_clear_bss>
 18a:	20 e6       	ldi	r18, 0x60	; 96
 18c:	b5 00       	.word	0x00b5	; ????
 18e:	d0 ed       	ldi	r29, 0xD0	; 208
 190:	90 2e       	mov	r9, r16
 192:	03 00       	.word	0x0003	; ????
 194:	94 35       	cpi	r25, 0x54	; 84
 196:	77 05       	cpc	r23, r7
 198:	00 80       	ld	r0, Z
 19a:	84 1e       	adc	r8, r20
 19c:	08 00       	.word	0x0008	; ????
 19e:	00 20       	and	r0, r0
 1a0:	4e 0a       	sbc	r4, r30
 1a2:	00 00       	nop
 1a4:	00 c8       	rjmp	.-4096   	; 0xfffff1a6 <__eeprom_end+0xff7ef1a6>
 1a6:	0c 33       	cpi	r16, 0x3C	; 60
 1a8:	33 33       	cpi	r19, 0x33	; 51
 1aa:	33 0f       	add	r19, r19
 1ac:	98 6e       	ori	r25, 0xE8	; 232
 1ae:	12 83       	std	Z+2, r17	; 0x02
 1b0:	11 41       	sbci	r17, 0x11	; 17
 1b2:	ef 8d       	ldd	r30, Y+31	; 0x1f
 1b4:	21 14       	cp	r2, r1
 1b6:	89 3b       	cpi	r24, 0xB9	; 185
 1b8:	e6 55       	subi	r30, 0x56	; 86
 1ba:	16 cf       	rjmp	.-468    	; 0xffffffe8 <__eeprom_end+0xff7effe8>
 1bc:	fe e6       	ldi	r31, 0x6E	; 110
 1be:	db 18       	sub	r13, r11
 1c0:	d1 84       	ldd	r13, Z+9	; 0x09
 1c2:	4b 38       	cpi	r20, 0x8B	; 139
 1c4:	1b f7       	brvc	.-58     	; 0x18c <__SREG__+0x14d>
 1c6:	7c 1d       	adc	r23, r12
 1c8:	90 1d       	adc	r25, r0
 1ca:	a4 bb       	out	0x14, r26	; 20
 1cc:	e4 24       	eor	r14, r4
 1ce:	20 32       	cpi	r18, 0x20	; 32
 1d0:	84 72       	andi	r24, 0x24	; 36
 1d2:	5e 22       	and	r5, r30
 1d4:	81 00       	.word	0x0081	; ????
 1d6:	c9 f1       	breq	.+114    	; 0x24a <init+0xa>
 1d8:	24 ec       	ldi	r18, 0xC4	; 196
 1da:	a1 e5       	ldi	r26, 0x51	; 81
 1dc:	3d 27       	eor	r19, r29

000001de <__ctors_end>:
 1de:	11 24       	eor	r1, r1
 1e0:	1f be       	out	0x3f, r1	; 63
 1e2:	cf ef       	ldi	r28, 0xFF	; 255
 1e4:	d1 e2       	ldi	r29, 0x21	; 33
 1e6:	de bf       	out	0x3e, r29	; 62
 1e8:	cd bf       	out	0x3d, r28	; 61
 1ea:	00 e0       	ldi	r16, 0x00	; 0
 1ec:	0c bf       	out	0x3c, r16	; 60

000001ee <__do_copy_data>:
 1ee:	12 e0       	ldi	r17, 0x02	; 2
 1f0:	a0 e0       	ldi	r26, 0x00	; 0
 1f2:	b2 e0       	ldi	r27, 0x02	; 2
 1f4:	e8 e9       	ldi	r30, 0x98	; 152
 1f6:	ff e0       	ldi	r31, 0x0F	; 15
 1f8:	00 e0       	ldi	r16, 0x00	; 0
 1fa:	0b bf       	out	0x3b, r16	; 59
 1fc:	02 c0       	rjmp	.+4      	; 0x202 <__do_copy_data+0x14>
 1fe:	07 90       	elpm	r0, Z+
 200:	0d 92       	st	X+, r0
 202:	a2 3a       	cpi	r26, 0xA2	; 162
 204:	b1 07       	cpc	r27, r17
 206:	d9 f7       	brne	.-10     	; 0x1fe <__do_copy_data+0x10>

00000208 <__do_clear_bss>:
 208:	12 e0       	ldi	r17, 0x02	; 2
 20a:	a2 ea       	ldi	r26, 0xA2	; 162
 20c:	b2 e0       	ldi	r27, 0x02	; 2
 20e:	01 c0       	rjmp	.+2      	; 0x212 <.do_clear_bss_start>

00000210 <.do_clear_bss_loop>:
 210:	1d 92       	st	X+, r1

00000212 <.do_clear_bss_start>:
 212:	a5 3a       	cpi	r26, 0xA5	; 165
 214:	b1 07       	cpc	r27, r17
 216:	e1 f7       	brne	.-8      	; 0x210 <.do_clear_bss_loop>
 218:	0e 94 e0 01 	call	0x3c0	; 0x3c0 <main>
 21c:	0c 94 ca 07 	jmp	0xf94	; 0xf94 <_exit>

00000220 <__bad_interrupt>:
 220:	0c 94 00 00 	jmp	0	; 0x0 <__vectors>

00000224 <counter_func>:

.extern counter_trigger
.extern counter_dir
.extern counter_value

counter_func:	lds r24, counter_dir
 224:	80 91 a3 02 	lds	r24, 0x02A3
				lds r25, counter_trigger   ;load current trigger value
 228:	90 91 a4 02 	lds	r25, 0x02A4
				lds r26, counter_value     ;
 22c:	a0 91 a2 02 	lds	r26, 0x02A2
				; Einlesen der Buttons
				sbis _SFR_IO_ADDR(PING), PING5 ; set if button 1
 230:	95 9b       	sbis	0x12, 5	; 18
				ldi  r24, 1
 232:	81 e0       	ldi	r24, 0x01	; 1

00000234 <end>:
		
; decrement_counter

; increment_counter

end:			sts counter_dir, r24
 234:	80 93 a3 02 	sts	0x02A3, r24
				sts counter_trigger, r25   ;save counter_trigger
 238:	90 93 a4 02 	sts	0x02A4, r25
				sts counter_value, r26     ;
 23c:	a0 93 a2 02 	sts	0x02A2, r26

00000240 <init>:
	//     - intermediate
	//       DDRA=1+2+4+8;
	//     - using processor makros
	//       DDRA=((1<<DDA0) | (1<<DDA1) | (1<<DDA2) | (1<<DDA3));
	//     - using hardware specific makros
	DDRB |= (1<<DDA7);
 240:	27 9a       	sbi	0x04, 7	; 4
	// disable leds
	PORTB &= ~(1<<7);
 242:	2f 98       	cbi	0x05, 7	; 5
	// -------------------------------------------------------------
	// Serial bus lines
	// -------------------------------------------------------------
	// Pin 5 = PORT E 3 = clock
	DDRE |= (1<<DDE3);
 244:	6b 9a       	sbi	0x0d, 3	; 13
	// Pin 6 = PORT H 3 = data
	DDRH |= (1<<DDH3);
 246:	e1 e0       	ldi	r30, 0x01	; 1
 248:	f1 e0       	ldi	r31, 0x01	; 1
 24a:	80 81       	ld	r24, Z
 24c:	88 60       	ori	r24, 0x08	; 8
 24e:	80 83       	st	Z, r24
	// Pin 7 = PORT H 4 = enable
	DDRH |= (1<<DDH4);
 250:	80 81       	ld	r24, Z
 252:	80 61       	ori	r24, 0x10	; 16
 254:	80 83       	st	Z, r24
	// -------------------------------------------------------------
	// Button configuration
	// -------------------------------------------------------------
	// not necessary but for completion
	// S1 as input
	DDRF &=~(1<<DDG4);
 256:	84 98       	cbi	0x10, 4	; 16
	// S2 as input
	DDRG &=~(1<<DDG5);
 258:	9d 98       	cbi	0x13, 5	; 19

	// --------------------------------------------------------------
	// UART 0 - Debug
	// --------------------------------------------------------------
	UBRR0H = UBRRH_VALUE;;    //Define Baud rate
 25a:	10 92 c5 00 	sts	0x00C5, r1
	UBRR0L = UBRRL_VALUE;
 25e:	87 e6       	ldi	r24, 0x67	; 103
 260:	80 93 c4 00 	sts	0x00C4, r24
	#if USE_2X
	UCSR0A |= (1 << U2X0);/* U2X-Modus erforderlich */
	#else
	UCSR0A &= ~(1 << U2X0);/* U2X-Modus nicht erforderlich */
 264:	e0 ec       	ldi	r30, 0xC0	; 192
 266:	f0 e0       	ldi	r31, 0x00	; 0
 268:	80 81       	ld	r24, Z
 26a:	8d 7f       	andi	r24, 0xFD	; 253
 26c:	80 83       	st	Z, r24
	#endif
	UCSR0B = (1<<TXEN0); //Enable Recceiver and Transmitter
 26e:	88 e0       	ldi	r24, 0x08	; 8
 270:	80 93 c1 00 	sts	0x00C1, r24
	UCSR0C = (0<<USBS0) | (1<<UCSZ00) | (1<<UCSZ01);
 274:	86 e0       	ldi	r24, 0x06	; 6
 276:	80 93 c2 00 	sts	0x00C2, r24
 27a:	08 95       	ret

0000027c <writetoDisplay>:
		writetoDisplay(disp[0]^=1, disp[1]^=1, disp[2]^=1);
	}
	return 0;
}

void writetoDisplay(char digit1, char digit2, char digit3){
 27c:	af 92       	push	r10
 27e:	bf 92       	push	r11
 280:	cf 92       	push	r12
 282:	df 92       	push	r13
 284:	ef 92       	push	r14
 286:	ff 92       	push	r15
 288:	0f 93       	push	r16
 28a:	1f 93       	push	r17
 28c:	cf 93       	push	r28
 28e:	df 93       	push	r29
 290:	cd b7       	in	r28, 0x3d	; 61
 292:	de b7       	in	r29, 0x3e	; 62
 294:	a4 97       	sbiw	r28, 0x24	; 36
 296:	0f b6       	in	r0, 0x3f	; 63
 298:	f8 94       	cli
 29a:	de bf       	out	0x3e, r29	; 62
 29c:	0f be       	out	0x3f, r0	; 63
 29e:	cd bf       	out	0x3d, r28	; 61

	char stream[36];
	stream[0]=1;
 2a0:	91 e0       	ldi	r25, 0x01	; 1
 2a2:	99 83       	std	Y+1, r25	; 0x01
 2a4:	fe 01       	movw	r30, r28
 2a6:	32 96       	adiw	r30, 0x02	; 2
		writetoDisplay(disp[0]^=1, disp[1]^=1, disp[2]^=1);
	}
	return 0;
}

void writetoDisplay(char digit1, char digit2, char digit3){
 2a8:	5e 01       	movw	r10, r28
 2aa:	95 e2       	ldi	r25, 0x25	; 37
 2ac:	a9 0e       	add	r10, r25
 2ae:	b1 1c       	adc	r11, r1

	char stream[36];
	stream[0]=1;
	int i;
	for ( i=1; i<36; i++ ) {
		stream[i]=0;
 2b0:	11 92       	st	Z+, r1
void writetoDisplay(char digit1, char digit2, char digit3){

	char stream[36];
	stream[0]=1;
	int i;
	for ( i=1; i<36; i++ ) {
 2b2:	ea 15       	cp	r30, r10
 2b4:	fb 05       	cpc	r31, r11
 2b6:	e1 f7       	brne	.-8      	; 0x2b0 <writetoDisplay+0x34>
 2b8:	fe 01       	movw	r30, r28
 2ba:	72 96       	adiw	r30, 0x12	; 18
 2bc:	27 e0       	ldi	r18, 0x07	; 7
 2be:	30 e0       	ldi	r19, 0x00	; 0
		stream[i]=0;
	}
	
	for ( i=0; i<8; i++ ) {
		if (digit1 & (1<<(7-i))) stream[i+ 1]=1;
 2c0:	90 e0       	ldi	r25, 0x00	; 0
 2c2:	dd 24       	eor	r13, r13
 2c4:	d3 94       	inc	r13
		if (digit2 & (1<<(7-i))) stream[i+9]=1;
 2c6:	70 e0       	ldi	r23, 0x00	; 0
		if (digit3 & (1<<(7-i))) stream[i+17]=1;
 2c8:	50 e0       	ldi	r21, 0x00	; 0
	for ( i=1; i<36; i++ ) {
		stream[i]=0;
	}
	
	for ( i=0; i<8; i++ ) {
		if (digit1 & (1<<(7-i))) stream[i+ 1]=1;
 2ca:	c2 2e       	mov	r12, r18
 2cc:	7c 01       	movw	r14, r24
 2ce:	02 2e       	mov	r0, r18
 2d0:	02 c0       	rjmp	.+4      	; 0x2d6 <writetoDisplay+0x5a>
 2d2:	f5 94       	asr	r15
 2d4:	e7 94       	ror	r14
 2d6:	0a 94       	dec	r0
 2d8:	e2 f7       	brpl	.-8      	; 0x2d2 <writetoDisplay+0x56>
 2da:	e0 fe       	sbrs	r14, 0
 2dc:	05 c0       	rjmp	.+10     	; 0x2e8 <writetoDisplay+0x6c>
		writetoDisplay(disp[0]^=1, disp[1]^=1, disp[2]^=1);
	}
	return 0;
}

void writetoDisplay(char digit1, char digit2, char digit3){
 2de:	8f 01       	movw	r16, r30
 2e0:	00 51       	subi	r16, 0x10	; 16
 2e2:	11 09       	sbc	r17, r1
	for ( i=1; i<36; i++ ) {
		stream[i]=0;
	}
	
	for ( i=0; i<8; i++ ) {
		if (digit1 & (1<<(7-i))) stream[i+ 1]=1;
 2e4:	d8 01       	movw	r26, r16
 2e6:	dc 92       	st	X, r13
		if (digit2 & (1<<(7-i))) stream[i+9]=1;
 2e8:	7b 01       	movw	r14, r22
 2ea:	0c 2c       	mov	r0, r12
 2ec:	02 c0       	rjmp	.+4      	; 0x2f2 <writetoDisplay+0x76>
 2ee:	f5 94       	asr	r15
 2f0:	e7 94       	ror	r14
 2f2:	0a 94       	dec	r0
 2f4:	e2 f7       	brpl	.-8      	; 0x2ee <writetoDisplay+0x72>
 2f6:	e0 fe       	sbrs	r14, 0
 2f8:	05 c0       	rjmp	.+10     	; 0x304 <writetoDisplay+0x88>
		writetoDisplay(disp[0]^=1, disp[1]^=1, disp[2]^=1);
	}
	return 0;
}

void writetoDisplay(char digit1, char digit2, char digit3){
 2fa:	8f 01       	movw	r16, r30
 2fc:	08 50       	subi	r16, 0x08	; 8
 2fe:	11 09       	sbc	r17, r1
		stream[i]=0;
	}
	
	for ( i=0; i<8; i++ ) {
		if (digit1 & (1<<(7-i))) stream[i+ 1]=1;
		if (digit2 & (1<<(7-i))) stream[i+9]=1;
 300:	d8 01       	movw	r26, r16
 302:	dc 92       	st	X, r13
		if (digit3 & (1<<(7-i))) stream[i+17]=1;
 304:	8a 01       	movw	r16, r20
 306:	02 c0       	rjmp	.+4      	; 0x30c <writetoDisplay+0x90>
 308:	15 95       	asr	r17
 30a:	07 95       	ror	r16
 30c:	ca 94       	dec	r12
 30e:	e2 f7       	brpl	.-8      	; 0x308 <writetoDisplay+0x8c>
 310:	00 fd       	sbrc	r16, 0
 312:	d0 82       	st	Z, r13
 314:	21 50       	subi	r18, 0x01	; 1
 316:	31 09       	sbc	r19, r1
 318:	31 96       	adiw	r30, 0x01	; 1
	int i;
	for ( i=1; i<36; i++ ) {
		stream[i]=0;
	}
	
	for ( i=0; i<8; i++ ) {
 31a:	2f 3f       	cpi	r18, 0xFF	; 255
 31c:	bf ef       	ldi	r27, 0xFF	; 255
 31e:	3b 07       	cpc	r19, r27
 320:	a1 f6       	brne	.-88     	; 0x2ca <writetoDisplay+0x4e>
 322:	fe 01       	movw	r30, r28
 324:	31 96       	adiw	r30, 0x01	; 1
	// Pin 6 = PORT H 3 = data
	// Pin 7 = PORT H 4 = enable

	for ( i=0; i<36; i++ ) {
		// clock low
		PORTE &= ~(1<<3);
 326:	73 98       	cbi	0x0e, 3	; 14
		// data enable low
		PORTH &= ~(1<<4);
 328:	80 91 02 01 	lds	r24, 0x0102
 32c:	8f 7e       	andi	r24, 0xEF	; 239
 32e:	80 93 02 01 	sts	0x0102, r24
	#else
		//round up by default
		__ticks_dc = (uint32_t)(ceil(fabs(__tmp)));
	#endif

	__builtin_avr_delay_cycles(__ticks_dc);
 332:	85 e0       	ldi	r24, 0x05	; 5
 334:	8a 95       	dec	r24
 336:	f1 f7       	brne	.-4      	; 0x334 <writetoDisplay+0xb8>
 338:	00 00       	nop
		_delay_us (1);
		// data
		if (stream[i]==1)
 33a:	81 91       	ld	r24, Z+
 33c:	81 30       	cpi	r24, 0x01	; 1
 33e:	21 f4       	brne	.+8      	; 0x348 <writetoDisplay+0xcc>
			PORTH |= (1<<3);
 340:	80 91 02 01 	lds	r24, 0x0102
 344:	88 60       	ori	r24, 0x08	; 8
 346:	03 c0       	rjmp	.+6      	; 0x34e <writetoDisplay+0xd2>
		else
			PORTH &=~(1<<3);
 348:	80 91 02 01 	lds	r24, 0x0102
 34c:	87 7f       	andi	r24, 0xF7	; 247
 34e:	80 93 02 01 	sts	0x0102, r24
 352:	95 e0       	ldi	r25, 0x05	; 5
 354:	9a 95       	dec	r25
 356:	f1 f7       	brne	.-4      	; 0x354 <writetoDisplay+0xd8>
 358:	00 00       	nop
		_delay_us (1);
		// clock high - Transmission finished
		PORTE |= (1<<3);
 35a:	73 9a       	sbi	0x0e, 3	; 14
 35c:	a5 e0       	ldi	r26, 0x05	; 5
 35e:	aa 95       	dec	r26
 360:	f1 f7       	brne	.-4      	; 0x35e <writetoDisplay+0xe2>
 362:	00 00       	nop
		_delay_us (1);
		// data enable high - ready for next cycle
		PORTH |= (1<<4);
 364:	80 91 02 01 	lds	r24, 0x0102
 368:	80 61       	ori	r24, 0x10	; 16
 36a:	80 93 02 01 	sts	0x0102, r24

	// Pin 5 = PORT E 3 = clock
	// Pin 6 = PORT H 3 = data
	// Pin 7 = PORT H 4 = enable

	for ( i=0; i<36; i++ ) {
 36e:	ea 15       	cp	r30, r10
 370:	fb 05       	cpc	r31, r11
 372:	c9 f6       	brne	.-78     	; 0x326 <writetoDisplay+0xaa>
		PORTE |= (1<<3);
		_delay_us (1);
		// data enable high - ready for next cycle
		PORTH |= (1<<4);
	}
}
 374:	a4 96       	adiw	r28, 0x24	; 36
 376:	0f b6       	in	r0, 0x3f	; 63
 378:	f8 94       	cli
 37a:	de bf       	out	0x3e, r29	; 62
 37c:	0f be       	out	0x3f, r0	; 63
 37e:	cd bf       	out	0x3d, r28	; 61
 380:	df 91       	pop	r29
 382:	cf 91       	pop	r28
 384:	1f 91       	pop	r17
 386:	0f 91       	pop	r16
 388:	ff 90       	pop	r15
 38a:	ef 90       	pop	r14
 38c:	df 90       	pop	r13
 38e:	cf 90       	pop	r12
 390:	bf 90       	pop	r11
 392:	af 90       	pop	r10
 394:	08 95       	ret

00000396 <uart_putc>:

int uart_putc(char c)
{
	while (!(UCSR0A & (1<<UDRE0)));
 396:	90 91 c0 00 	lds	r25, 0x00C0
 39a:	95 ff       	sbrs	r25, 5
 39c:	fc cf       	rjmp	.-8      	; 0x396 <uart_putc>
	UDR0 = c;
 39e:	80 93 c6 00 	sts	0x00C6, r24
	return 0;
}
 3a2:	80 e0       	ldi	r24, 0x00	; 0
 3a4:	90 e0       	ldi	r25, 0x00	; 0
 3a6:	08 95       	ret

000003a8 <uart_puts>:

void uart_puts (const char *s)
{
 3a8:	cf 93       	push	r28
 3aa:	df 93       	push	r29
 3ac:	ec 01       	movw	r28, r24
	while (*s) {
 3ae:	02 c0       	rjmp	.+4      	; 0x3b4 <uart_puts+0xc>
		uart_putc(*s);
 3b0:	0e 94 cb 01 	call	0x396	; 0x396 <uart_putc>
	return 0;
}

void uart_puts (const char *s)
{
	while (*s) {
 3b4:	89 91       	ld	r24, Y+
 3b6:	81 11       	cpse	r24, r1
 3b8:	fb cf       	rjmp	.-10     	; 0x3b0 <uart_puts+0x8>
		uart_putc(*s);
		s++;
	}
}
 3ba:	df 91       	pop	r29
 3bc:	cf 91       	pop	r28
 3be:	08 95       	ret

000003c0 <main>:
 3c0:	cf 93       	push	r28
 3c2:	df 93       	push	r29
 3c4:	cd b7       	in	r28, 0x3d	; 61
 3c6:	de b7       	in	r29, 0x3e	; 62
 3c8:	64 97       	sbiw	r28, 0x14	; 20
 3ca:	0f b6       	in	r0, 0x3f	; 63
 3cc:	f8 94       	cli
 3ce:	de bf       	out	0x3e, r29	; 62
 3d0:	0f be       	out	0x3f, r0	; 63
 3d2:	cd bf       	out	0x3d, r28	; 61
 3d4:	0e 94 20 01 	call	0x240	; 0x240 <init>
 3d8:	8e e3       	ldi	r24, 0x3E	; 62
 3da:	92 e0       	ldi	r25, 0x02	; 2
 3dc:	0e 94 d4 01 	call	0x3a8	; 0x3a8 <uart_puts>
 3e0:	80 e0       	ldi	r24, 0x00	; 0
 3e2:	92 e0       	ldi	r25, 0x02	; 2
 3e4:	0e 94 d4 01 	call	0x3a8	; 0x3a8 <uart_puts>
 3e8:	8e e1       	ldi	r24, 0x1E	; 30
 3ea:	92 e0       	ldi	r25, 0x02	; 2
 3ec:	0e 94 d4 01 	call	0x3a8	; 0x3a8 <uart_puts>
 3f0:	8e 01       	movw	r16, r28
 3f2:	0f 5f       	subi	r16, 0xFF	; 255
 3f4:	1f 4f       	sbci	r17, 0xFF	; 255
 3f6:	22 e0       	ldi	r18, 0x02	; 2
 3f8:	41 e0       	ldi	r20, 0x01	; 1
 3fa:	6d ec       	ldi	r22, 0xCD	; 205
 3fc:	7c ec       	ldi	r23, 0xCC	; 204
 3fe:	8c e4       	ldi	r24, 0x4C	; 76
 400:	9e e3       	ldi	r25, 0x3E	; 62
 402:	0e 94 7f 02 	call	0x4fe	; 0x4fe <dtostrf>
 406:	0e 94 d4 01 	call	0x3a8	; 0x3a8 <uart_puts>
 40a:	8c e3       	ldi	r24, 0x3C	; 60
 40c:	92 e0       	ldi	r25, 0x02	; 2
 40e:	0e 94 d4 01 	call	0x3a8	; 0x3a8 <uart_puts>
 412:	47 eb       	ldi	r20, 0xB7	; 183
 414:	6d ef       	ldi	r22, 0xFD	; 253
 416:	8f e9       	ldi	r24, 0x9F	; 159
 418:	0e 94 3e 01 	call	0x27c	; 0x27c <writetoDisplay>
 41c:	81 e0       	ldi	r24, 0x01	; 1
 41e:	80 93 a4 02 	sts	0x02A4, r24
 422:	10 92 a2 02 	sts	0x02A2, r1
 426:	10 92 a3 02 	sts	0x02A3, r1
 42a:	83 e6       	ldi	r24, 0x63	; 99
 42c:	92 e0       	ldi	r25, 0x02	; 2
 42e:	0e 94 d4 01 	call	0x3a8	; 0x3a8 <uart_puts>
 432:	7c 99       	sbic	0x0f, 4	; 15
 434:	02 c0       	rjmp	.+4      	; 0x43a <main+0x7a>
 436:	95 9b       	sbis	0x12, 5	; 18
 438:	fc cf       	rjmp	.-8      	; 0x432 <main+0x72>
 43a:	87 eb       	ldi	r24, 0xB7	; 183
 43c:	98 2e       	mov	r9, r24
 43e:	9d ef       	ldi	r25, 0xFD	; 253
 440:	a9 2e       	mov	r10, r25
 442:	2f e9       	ldi	r18, 0x9F	; 159
 444:	b2 2e       	mov	r11, r18
 446:	35 e7       	ldi	r19, 0x75	; 117
 448:	e3 2e       	mov	r14, r19
 44a:	32 e0       	ldi	r19, 0x02	; 2
 44c:	f3 2e       	mov	r15, r19
 44e:	8e 01       	movw	r16, r28
 450:	0f 5f       	subi	r16, 0xFF	; 255
 452:	1f 4f       	sbci	r17, 0xFF	; 255
 454:	42 e8       	ldi	r20, 0x82	; 130
 456:	c4 2e       	mov	r12, r20
 458:	42 e0       	ldi	r20, 0x02	; 2
 45a:	d4 2e       	mov	r13, r20
 45c:	88 24       	eor	r8, r8
 45e:	83 94       	inc	r8
 460:	8f e3       	ldi	r24, 0x3F	; 63
 462:	9c e9       	ldi	r25, 0x9C	; 156
 464:	01 97       	sbiw	r24, 0x01	; 1
 466:	f1 f7       	brne	.-4      	; 0x464 <main+0xa4>
 468:	00 c0       	rjmp	.+0      	; 0x46a <main+0xaa>
 46a:	00 00       	nop
 46c:	2f 98       	cbi	0x05, 7	; 5
 46e:	8f e3       	ldi	r24, 0x3F	; 63
 470:	9c e9       	ldi	r25, 0x9C	; 156
 472:	01 97       	sbiw	r24, 0x01	; 1
 474:	f1 f7       	brne	.-4      	; 0x472 <main+0xb2>
 476:	00 c0       	rjmp	.+0      	; 0x478 <main+0xb8>
 478:	00 00       	nop
 47a:	2f 9a       	sbi	0x05, 7	; 5
 47c:	0e 94 12 01 	call	0x224	; 0x224 <counter_func>
 480:	80 91 a4 02 	lds	r24, 0x02A4
 484:	28 2f       	mov	r18, r24
 486:	33 27       	eor	r19, r19
 488:	27 fd       	sbrc	r18, 7
 48a:	30 95       	com	r19
 48c:	3f 93       	push	r19
 48e:	8f 93       	push	r24
 490:	ff 92       	push	r15
 492:	ef 92       	push	r14
 494:	1f 93       	push	r17
 496:	0f 93       	push	r16
 498:	0e 94 a0 02 	call	0x540	; 0x540 <sprintf>
 49c:	c8 01       	movw	r24, r16
 49e:	0e 94 d4 01 	call	0x3a8	; 0x3a8 <uart_puts>
 4a2:	80 91 a2 02 	lds	r24, 0x02A2
 4a6:	28 2f       	mov	r18, r24
 4a8:	33 27       	eor	r19, r19
 4aa:	27 fd       	sbrc	r18, 7
 4ac:	30 95       	com	r19
 4ae:	3f 93       	push	r19
 4b0:	8f 93       	push	r24
 4b2:	df 92       	push	r13
 4b4:	cf 92       	push	r12
 4b6:	1f 93       	push	r17
 4b8:	0f 93       	push	r16
 4ba:	0e 94 a0 02 	call	0x540	; 0x540 <sprintf>
 4be:	c8 01       	movw	r24, r16
 4c0:	0e 94 d4 01 	call	0x3a8	; 0x3a8 <uart_puts>
 4c4:	80 91 a3 02 	lds	r24, 0x02A3
 4c8:	0f b6       	in	r0, 0x3f	; 63
 4ca:	f8 94       	cli
 4cc:	de bf       	out	0x3e, r29	; 62
 4ce:	0f be       	out	0x3f, r0	; 63
 4d0:	cd bf       	out	0x3d, r28	; 61
 4d2:	81 30       	cpi	r24, 0x01	; 1
 4d4:	19 f4       	brne	.+6      	; 0x4dc <main+0x11c>
 4d6:	82 e9       	ldi	r24, 0x92	; 146
 4d8:	92 e0       	ldi	r25, 0x02	; 2
 4da:	02 c0       	rjmp	.+4      	; 0x4e0 <main+0x120>
 4dc:	87 e9       	ldi	r24, 0x97	; 151
 4de:	92 e0       	ldi	r25, 0x02	; 2
 4e0:	0e 94 d4 01 	call	0x3a8	; 0x3a8 <uart_puts>
 4e4:	8c e9       	ldi	r24, 0x9C	; 156
 4e6:	92 e0       	ldi	r25, 0x02	; 2
 4e8:	0e 94 d4 01 	call	0x3a8	; 0x3a8 <uart_puts>
 4ec:	98 24       	eor	r9, r8
 4ee:	a8 24       	eor	r10, r8
 4f0:	b8 24       	eor	r11, r8
 4f2:	49 2d       	mov	r20, r9
 4f4:	6a 2d       	mov	r22, r10
 4f6:	8b 2d       	mov	r24, r11
 4f8:	0e 94 3e 01 	call	0x27c	; 0x27c <writetoDisplay>
 4fc:	b1 cf       	rjmp	.-158    	; 0x460 <main+0xa0>

000004fe <dtostrf>:
 4fe:	ef 92       	push	r14
 500:	0f 93       	push	r16
 502:	1f 93       	push	r17
 504:	cf 93       	push	r28
 506:	c0 2f       	mov	r28, r16
 508:	47 ff       	sbrs	r20, 7
 50a:	02 c0       	rjmp	.+4      	; 0x510 <dtostrf+0x12>
 50c:	34 e1       	ldi	r19, 0x14	; 20
 50e:	01 c0       	rjmp	.+2      	; 0x512 <dtostrf+0x14>
 510:	34 e0       	ldi	r19, 0x04	; 4
 512:	e4 2f       	mov	r30, r20
 514:	ff 27       	eor	r31, r31
 516:	e7 fd       	sbrc	r30, 7
 518:	f0 95       	com	r31
 51a:	f7 ff       	sbrs	r31, 7
 51c:	03 c0       	rjmp	.+6      	; 0x524 <dtostrf+0x26>
 51e:	f1 95       	neg	r31
 520:	e1 95       	neg	r30
 522:	f1 09       	sbc	r31, r1
 524:	e3 2e       	mov	r14, r19
 526:	02 2f       	mov	r16, r18
 528:	2e 2f       	mov	r18, r30
 52a:	4c 2f       	mov	r20, r28
 52c:	51 2f       	mov	r21, r17
 52e:	0e 94 d7 04 	call	0x9ae	; 0x9ae <dtoa_prf>
 532:	8c 2f       	mov	r24, r28
 534:	91 2f       	mov	r25, r17
 536:	cf 91       	pop	r28
 538:	1f 91       	pop	r17
 53a:	0f 91       	pop	r16
 53c:	ef 90       	pop	r14
 53e:	08 95       	ret

00000540 <sprintf>:
 540:	0f 93       	push	r16
 542:	1f 93       	push	r17
 544:	cf 93       	push	r28
 546:	df 93       	push	r29
 548:	cd b7       	in	r28, 0x3d	; 61
 54a:	de b7       	in	r29, 0x3e	; 62
 54c:	60 97       	sbiw	r28, 0x10	; 16
 54e:	0f b6       	in	r0, 0x3f	; 63
 550:	f8 94       	cli
 552:	de bf       	out	0x3e, r29	; 62
 554:	0f be       	out	0x3f, r0	; 63
 556:	cd bf       	out	0x3d, r28	; 61
 558:	08 8d       	ldd	r16, Y+24	; 0x18
 55a:	19 8d       	ldd	r17, Y+25	; 0x19
 55c:	86 e0       	ldi	r24, 0x06	; 6
 55e:	8c 83       	std	Y+4, r24	; 0x04
 560:	1a 83       	std	Y+2, r17	; 0x02
 562:	09 83       	std	Y+1, r16	; 0x01
 564:	8f ef       	ldi	r24, 0xFF	; 255
 566:	9f e7       	ldi	r25, 0x7F	; 127
 568:	9e 83       	std	Y+6, r25	; 0x06
 56a:	8d 83       	std	Y+5, r24	; 0x05
 56c:	ae 01       	movw	r20, r28
 56e:	44 5e       	subi	r20, 0xE4	; 228
 570:	5f 4f       	sbci	r21, 0xFF	; 255
 572:	58 8b       	std	Y+16, r21	; 0x10
 574:	4f 87       	std	Y+15, r20	; 0x0f
 576:	6a 8d       	ldd	r22, Y+26	; 0x1a
 578:	7b 8d       	ldd	r23, Y+27	; 0x1b
 57a:	ce 01       	movw	r24, r28
 57c:	01 96       	adiw	r24, 0x01	; 1
 57e:	0e 94 d1 02 	call	0x5a2	; 0x5a2 <vfprintf>
 582:	ef 81       	ldd	r30, Y+7	; 0x07
 584:	f8 85       	ldd	r31, Y+8	; 0x08
 586:	e0 0f       	add	r30, r16
 588:	f1 1f       	adc	r31, r17
 58a:	10 82       	st	Z, r1
 58c:	60 96       	adiw	r28, 0x10	; 16
 58e:	0f b6       	in	r0, 0x3f	; 63
 590:	f8 94       	cli
 592:	de bf       	out	0x3e, r29	; 62
 594:	0f be       	out	0x3f, r0	; 63
 596:	cd bf       	out	0x3d, r28	; 61
 598:	df 91       	pop	r29
 59a:	cf 91       	pop	r28
 59c:	1f 91       	pop	r17
 59e:	0f 91       	pop	r16
 5a0:	08 95       	ret

000005a2 <vfprintf>:
 5a2:	2f 92       	push	r2
 5a4:	3f 92       	push	r3
 5a6:	4f 92       	push	r4
 5a8:	5f 92       	push	r5
 5aa:	6f 92       	push	r6
 5ac:	7f 92       	push	r7
 5ae:	8f 92       	push	r8
 5b0:	9f 92       	push	r9
 5b2:	af 92       	push	r10
 5b4:	bf 92       	push	r11
 5b6:	cf 92       	push	r12
 5b8:	df 92       	push	r13
 5ba:	ef 92       	push	r14
 5bc:	ff 92       	push	r15
 5be:	0f 93       	push	r16
 5c0:	1f 93       	push	r17
 5c2:	cf 93       	push	r28
 5c4:	df 93       	push	r29
 5c6:	cd b7       	in	r28, 0x3d	; 61
 5c8:	de b7       	in	r29, 0x3e	; 62
 5ca:	2c 97       	sbiw	r28, 0x0c	; 12
 5cc:	0f b6       	in	r0, 0x3f	; 63
 5ce:	f8 94       	cli
 5d0:	de bf       	out	0x3e, r29	; 62
 5d2:	0f be       	out	0x3f, r0	; 63
 5d4:	cd bf       	out	0x3d, r28	; 61
 5d6:	7c 01       	movw	r14, r24
 5d8:	6b 01       	movw	r12, r22
 5da:	8a 01       	movw	r16, r20
 5dc:	fc 01       	movw	r30, r24
 5de:	17 82       	std	Z+7, r1	; 0x07
 5e0:	16 82       	std	Z+6, r1	; 0x06
 5e2:	83 81       	ldd	r24, Z+3	; 0x03
 5e4:	81 ff       	sbrs	r24, 1
 5e6:	c7 c1       	rjmp	.+910    	; 0x976 <vfprintf+0x3d4>
 5e8:	88 24       	eor	r8, r8
 5ea:	83 94       	inc	r8
 5ec:	91 2c       	mov	r9, r1
 5ee:	8c 0e       	add	r8, r28
 5f0:	9d 1e       	adc	r9, r29
 5f2:	f7 01       	movw	r30, r14
 5f4:	93 81       	ldd	r25, Z+3	; 0x03
 5f6:	f6 01       	movw	r30, r12
 5f8:	93 fd       	sbrc	r25, 3
 5fa:	85 91       	lpm	r24, Z+
 5fc:	93 ff       	sbrs	r25, 3
 5fe:	81 91       	ld	r24, Z+
 600:	6f 01       	movw	r12, r30
 602:	88 23       	and	r24, r24
 604:	09 f4       	brne	.+2      	; 0x608 <vfprintf+0x66>
 606:	b3 c1       	rjmp	.+870    	; 0x96e <vfprintf+0x3cc>
 608:	85 32       	cpi	r24, 0x25	; 37
 60a:	39 f4       	brne	.+14     	; 0x61a <vfprintf+0x78>
 60c:	93 fd       	sbrc	r25, 3
 60e:	85 91       	lpm	r24, Z+
 610:	93 ff       	sbrs	r25, 3
 612:	81 91       	ld	r24, Z+
 614:	6f 01       	movw	r12, r30
 616:	85 32       	cpi	r24, 0x25	; 37
 618:	29 f4       	brne	.+10     	; 0x624 <vfprintf+0x82>
 61a:	b7 01       	movw	r22, r14
 61c:	90 e0       	ldi	r25, 0x00	; 0
 61e:	0e 94 40 07 	call	0xe80	; 0xe80 <fputc>
 622:	e7 cf       	rjmp	.-50     	; 0x5f2 <vfprintf+0x50>
 624:	71 2c       	mov	r7, r1
 626:	31 2c       	mov	r3, r1
 628:	20 e0       	ldi	r18, 0x00	; 0
 62a:	20 32       	cpi	r18, 0x20	; 32
 62c:	a8 f4       	brcc	.+42     	; 0x658 <vfprintf+0xb6>
 62e:	8b 32       	cpi	r24, 0x2B	; 43
 630:	61 f0       	breq	.+24     	; 0x64a <vfprintf+0xa8>
 632:	28 f4       	brcc	.+10     	; 0x63e <vfprintf+0x9c>
 634:	80 32       	cpi	r24, 0x20	; 32
 636:	51 f0       	breq	.+20     	; 0x64c <vfprintf+0xaa>
 638:	83 32       	cpi	r24, 0x23	; 35
 63a:	71 f4       	brne	.+28     	; 0x658 <vfprintf+0xb6>
 63c:	0b c0       	rjmp	.+22     	; 0x654 <vfprintf+0xb2>
 63e:	8d 32       	cpi	r24, 0x2D	; 45
 640:	39 f0       	breq	.+14     	; 0x650 <vfprintf+0xae>
 642:	80 33       	cpi	r24, 0x30	; 48
 644:	49 f4       	brne	.+18     	; 0x658 <vfprintf+0xb6>
 646:	21 60       	ori	r18, 0x01	; 1
 648:	28 c0       	rjmp	.+80     	; 0x69a <vfprintf+0xf8>
 64a:	22 60       	ori	r18, 0x02	; 2
 64c:	24 60       	ori	r18, 0x04	; 4
 64e:	25 c0       	rjmp	.+74     	; 0x69a <vfprintf+0xf8>
 650:	28 60       	ori	r18, 0x08	; 8
 652:	23 c0       	rjmp	.+70     	; 0x69a <vfprintf+0xf8>
 654:	20 61       	ori	r18, 0x10	; 16
 656:	21 c0       	rjmp	.+66     	; 0x69a <vfprintf+0xf8>
 658:	27 fd       	sbrc	r18, 7
 65a:	27 c0       	rjmp	.+78     	; 0x6aa <vfprintf+0x108>
 65c:	38 2f       	mov	r19, r24
 65e:	30 53       	subi	r19, 0x30	; 48
 660:	3a 30       	cpi	r19, 0x0A	; 10
 662:	78 f4       	brcc	.+30     	; 0x682 <vfprintf+0xe0>
 664:	26 ff       	sbrs	r18, 6
 666:	06 c0       	rjmp	.+12     	; 0x674 <vfprintf+0xd2>
 668:	fa e0       	ldi	r31, 0x0A	; 10
 66a:	7f 9e       	mul	r7, r31
 66c:	30 0d       	add	r19, r0
 66e:	11 24       	eor	r1, r1
 670:	73 2e       	mov	r7, r19
 672:	13 c0       	rjmp	.+38     	; 0x69a <vfprintf+0xf8>
 674:	8a e0       	ldi	r24, 0x0A	; 10
 676:	38 9e       	mul	r3, r24
 678:	30 0d       	add	r19, r0
 67a:	11 24       	eor	r1, r1
 67c:	33 2e       	mov	r3, r19
 67e:	20 62       	ori	r18, 0x20	; 32
 680:	0c c0       	rjmp	.+24     	; 0x69a <vfprintf+0xf8>
 682:	8e 32       	cpi	r24, 0x2E	; 46
 684:	21 f4       	brne	.+8      	; 0x68e <vfprintf+0xec>
 686:	26 fd       	sbrc	r18, 6
 688:	72 c1       	rjmp	.+740    	; 0x96e <vfprintf+0x3cc>
 68a:	20 64       	ori	r18, 0x40	; 64
 68c:	06 c0       	rjmp	.+12     	; 0x69a <vfprintf+0xf8>
 68e:	8c 36       	cpi	r24, 0x6C	; 108
 690:	11 f4       	brne	.+4      	; 0x696 <vfprintf+0xf4>
 692:	20 68       	ori	r18, 0x80	; 128
 694:	02 c0       	rjmp	.+4      	; 0x69a <vfprintf+0xf8>
 696:	88 36       	cpi	r24, 0x68	; 104
 698:	41 f4       	brne	.+16     	; 0x6aa <vfprintf+0x108>
 69a:	f6 01       	movw	r30, r12
 69c:	93 fd       	sbrc	r25, 3
 69e:	85 91       	lpm	r24, Z+
 6a0:	93 ff       	sbrs	r25, 3
 6a2:	81 91       	ld	r24, Z+
 6a4:	6f 01       	movw	r12, r30
 6a6:	81 11       	cpse	r24, r1
 6a8:	c0 cf       	rjmp	.-128    	; 0x62a <vfprintf+0x88>
 6aa:	98 2f       	mov	r25, r24
 6ac:	95 54       	subi	r25, 0x45	; 69
 6ae:	93 30       	cpi	r25, 0x03	; 3
 6b0:	18 f0       	brcs	.+6      	; 0x6b8 <vfprintf+0x116>
 6b2:	90 52       	subi	r25, 0x20	; 32
 6b4:	93 30       	cpi	r25, 0x03	; 3
 6b6:	28 f4       	brcc	.+10     	; 0x6c2 <vfprintf+0x120>
 6b8:	0c 5f       	subi	r16, 0xFC	; 252
 6ba:	1f 4f       	sbci	r17, 0xFF	; 255
 6bc:	ff e3       	ldi	r31, 0x3F	; 63
 6be:	f9 83       	std	Y+1, r31	; 0x01
 6c0:	0d c0       	rjmp	.+26     	; 0x6dc <vfprintf+0x13a>
 6c2:	83 36       	cpi	r24, 0x63	; 99
 6c4:	31 f0       	breq	.+12     	; 0x6d2 <vfprintf+0x130>
 6c6:	83 37       	cpi	r24, 0x73	; 115
 6c8:	71 f0       	breq	.+28     	; 0x6e6 <vfprintf+0x144>
 6ca:	83 35       	cpi	r24, 0x53	; 83
 6cc:	09 f0       	breq	.+2      	; 0x6d0 <vfprintf+0x12e>
 6ce:	5e c0       	rjmp	.+188    	; 0x78c <vfprintf+0x1ea>
 6d0:	23 c0       	rjmp	.+70     	; 0x718 <vfprintf+0x176>
 6d2:	f8 01       	movw	r30, r16
 6d4:	80 81       	ld	r24, Z
 6d6:	89 83       	std	Y+1, r24	; 0x01
 6d8:	0e 5f       	subi	r16, 0xFE	; 254
 6da:	1f 4f       	sbci	r17, 0xFF	; 255
 6dc:	66 24       	eor	r6, r6
 6de:	63 94       	inc	r6
 6e0:	71 2c       	mov	r7, r1
 6e2:	54 01       	movw	r10, r8
 6e4:	15 c0       	rjmp	.+42     	; 0x710 <vfprintf+0x16e>
 6e6:	28 01       	movw	r4, r16
 6e8:	f2 e0       	ldi	r31, 0x02	; 2
 6ea:	4f 0e       	add	r4, r31
 6ec:	51 1c       	adc	r5, r1
 6ee:	f8 01       	movw	r30, r16
 6f0:	a0 80       	ld	r10, Z
 6f2:	b1 80       	ldd	r11, Z+1	; 0x01
 6f4:	26 ff       	sbrs	r18, 6
 6f6:	03 c0       	rjmp	.+6      	; 0x6fe <vfprintf+0x15c>
 6f8:	67 2d       	mov	r22, r7
 6fa:	70 e0       	ldi	r23, 0x00	; 0
 6fc:	02 c0       	rjmp	.+4      	; 0x702 <vfprintf+0x160>
 6fe:	6f ef       	ldi	r22, 0xFF	; 255
 700:	7f ef       	ldi	r23, 0xFF	; 255
 702:	c5 01       	movw	r24, r10
 704:	2c 87       	std	Y+12, r18	; 0x0c
 706:	0e 94 35 07 	call	0xe6a	; 0xe6a <strnlen>
 70a:	3c 01       	movw	r6, r24
 70c:	82 01       	movw	r16, r4
 70e:	2c 85       	ldd	r18, Y+12	; 0x0c
 710:	6f e7       	ldi	r22, 0x7F	; 127
 712:	26 2e       	mov	r2, r22
 714:	22 22       	and	r2, r18
 716:	18 c0       	rjmp	.+48     	; 0x748 <vfprintf+0x1a6>
 718:	28 01       	movw	r4, r16
 71a:	f2 e0       	ldi	r31, 0x02	; 2
 71c:	4f 0e       	add	r4, r31
 71e:	51 1c       	adc	r5, r1
 720:	f8 01       	movw	r30, r16
 722:	a0 80       	ld	r10, Z
 724:	b1 80       	ldd	r11, Z+1	; 0x01
 726:	26 ff       	sbrs	r18, 6
 728:	03 c0       	rjmp	.+6      	; 0x730 <vfprintf+0x18e>
 72a:	67 2d       	mov	r22, r7
 72c:	70 e0       	ldi	r23, 0x00	; 0
 72e:	02 c0       	rjmp	.+4      	; 0x734 <vfprintf+0x192>
 730:	6f ef       	ldi	r22, 0xFF	; 255
 732:	7f ef       	ldi	r23, 0xFF	; 255
 734:	c5 01       	movw	r24, r10
 736:	2c 87       	std	Y+12, r18	; 0x0c
 738:	0e 94 2a 07 	call	0xe54	; 0xe54 <strnlen_P>
 73c:	3c 01       	movw	r6, r24
 73e:	2c 85       	ldd	r18, Y+12	; 0x0c
 740:	50 e8       	ldi	r21, 0x80	; 128
 742:	25 2e       	mov	r2, r21
 744:	22 2a       	or	r2, r18
 746:	82 01       	movw	r16, r4
 748:	23 fc       	sbrc	r2, 3
 74a:	1c c0       	rjmp	.+56     	; 0x784 <vfprintf+0x1e2>
 74c:	06 c0       	rjmp	.+12     	; 0x75a <vfprintf+0x1b8>
 74e:	b7 01       	movw	r22, r14
 750:	80 e2       	ldi	r24, 0x20	; 32
 752:	90 e0       	ldi	r25, 0x00	; 0
 754:	0e 94 40 07 	call	0xe80	; 0xe80 <fputc>
 758:	3a 94       	dec	r3
 75a:	83 2d       	mov	r24, r3
 75c:	90 e0       	ldi	r25, 0x00	; 0
 75e:	68 16       	cp	r6, r24
 760:	79 06       	cpc	r7, r25
 762:	a8 f3       	brcs	.-22     	; 0x74e <vfprintf+0x1ac>
 764:	0f c0       	rjmp	.+30     	; 0x784 <vfprintf+0x1e2>
 766:	f5 01       	movw	r30, r10
 768:	27 fc       	sbrc	r2, 7
 76a:	85 91       	lpm	r24, Z+
 76c:	27 fe       	sbrs	r2, 7
 76e:	81 91       	ld	r24, Z+
 770:	5f 01       	movw	r10, r30
 772:	b7 01       	movw	r22, r14
 774:	90 e0       	ldi	r25, 0x00	; 0
 776:	0e 94 40 07 	call	0xe80	; 0xe80 <fputc>
 77a:	31 10       	cpse	r3, r1
 77c:	3a 94       	dec	r3
 77e:	f1 e0       	ldi	r31, 0x01	; 1
 780:	6f 1a       	sub	r6, r31
 782:	71 08       	sbc	r7, r1
 784:	61 14       	cp	r6, r1
 786:	71 04       	cpc	r7, r1
 788:	71 f7       	brne	.-36     	; 0x766 <vfprintf+0x1c4>
 78a:	ee c0       	rjmp	.+476    	; 0x968 <vfprintf+0x3c6>
 78c:	84 36       	cpi	r24, 0x64	; 100
 78e:	11 f0       	breq	.+4      	; 0x794 <vfprintf+0x1f2>
 790:	89 36       	cpi	r24, 0x69	; 105
 792:	41 f5       	brne	.+80     	; 0x7e4 <vfprintf+0x242>
 794:	f8 01       	movw	r30, r16
 796:	27 ff       	sbrs	r18, 7
 798:	07 c0       	rjmp	.+14     	; 0x7a8 <vfprintf+0x206>
 79a:	60 81       	ld	r22, Z
 79c:	71 81       	ldd	r23, Z+1	; 0x01
 79e:	82 81       	ldd	r24, Z+2	; 0x02
 7a0:	93 81       	ldd	r25, Z+3	; 0x03
 7a2:	0c 5f       	subi	r16, 0xFC	; 252
 7a4:	1f 4f       	sbci	r17, 0xFF	; 255
 7a6:	08 c0       	rjmp	.+16     	; 0x7b8 <vfprintf+0x216>
 7a8:	60 81       	ld	r22, Z
 7aa:	71 81       	ldd	r23, Z+1	; 0x01
 7ac:	88 27       	eor	r24, r24
 7ae:	77 fd       	sbrc	r23, 7
 7b0:	80 95       	com	r24
 7b2:	98 2f       	mov	r25, r24
 7b4:	0e 5f       	subi	r16, 0xFE	; 254
 7b6:	1f 4f       	sbci	r17, 0xFF	; 255
 7b8:	4f e6       	ldi	r20, 0x6F	; 111
 7ba:	64 2e       	mov	r6, r20
 7bc:	62 22       	and	r6, r18
 7be:	97 ff       	sbrs	r25, 7
 7c0:	09 c0       	rjmp	.+18     	; 0x7d4 <vfprintf+0x232>
 7c2:	90 95       	com	r25
 7c4:	80 95       	com	r24
 7c6:	70 95       	com	r23
 7c8:	61 95       	neg	r22
 7ca:	7f 4f       	sbci	r23, 0xFF	; 255
 7cc:	8f 4f       	sbci	r24, 0xFF	; 255
 7ce:	9f 4f       	sbci	r25, 0xFF	; 255
 7d0:	f0 e8       	ldi	r31, 0x80	; 128
 7d2:	6f 2a       	or	r6, r31
 7d4:	2a e0       	ldi	r18, 0x0A	; 10
 7d6:	30 e0       	ldi	r19, 0x00	; 0
 7d8:	a4 01       	movw	r20, r8
 7da:	0e 94 6c 07 	call	0xed8	; 0xed8 <__ultoa_invert>
 7de:	a8 2e       	mov	r10, r24
 7e0:	a8 18       	sub	r10, r8
 7e2:	44 c0       	rjmp	.+136    	; 0x86c <vfprintf+0x2ca>
 7e4:	85 37       	cpi	r24, 0x75	; 117
 7e6:	31 f4       	brne	.+12     	; 0x7f4 <vfprintf+0x252>
 7e8:	3f ee       	ldi	r19, 0xEF	; 239
 7ea:	b3 2e       	mov	r11, r19
 7ec:	b2 22       	and	r11, r18
 7ee:	2a e0       	ldi	r18, 0x0A	; 10
 7f0:	30 e0       	ldi	r19, 0x00	; 0
 7f2:	24 c0       	rjmp	.+72     	; 0x83c <vfprintf+0x29a>
 7f4:	99 ef       	ldi	r25, 0xF9	; 249
 7f6:	b9 2e       	mov	r11, r25
 7f8:	b2 22       	and	r11, r18
 7fa:	8f 36       	cpi	r24, 0x6F	; 111
 7fc:	b9 f0       	breq	.+46     	; 0x82c <vfprintf+0x28a>
 7fe:	20 f4       	brcc	.+8      	; 0x808 <vfprintf+0x266>
 800:	88 35       	cpi	r24, 0x58	; 88
 802:	09 f0       	breq	.+2      	; 0x806 <vfprintf+0x264>
 804:	b4 c0       	rjmp	.+360    	; 0x96e <vfprintf+0x3cc>
 806:	0d c0       	rjmp	.+26     	; 0x822 <vfprintf+0x280>
 808:	80 37       	cpi	r24, 0x70	; 112
 80a:	21 f0       	breq	.+8      	; 0x814 <vfprintf+0x272>
 80c:	88 37       	cpi	r24, 0x78	; 120
 80e:	09 f0       	breq	.+2      	; 0x812 <vfprintf+0x270>
 810:	ae c0       	rjmp	.+348    	; 0x96e <vfprintf+0x3cc>
 812:	02 c0       	rjmp	.+4      	; 0x818 <vfprintf+0x276>
 814:	20 e1       	ldi	r18, 0x10	; 16
 816:	b2 2a       	or	r11, r18
 818:	b4 fe       	sbrs	r11, 4
 81a:	0b c0       	rjmp	.+22     	; 0x832 <vfprintf+0x290>
 81c:	84 e0       	ldi	r24, 0x04	; 4
 81e:	b8 2a       	or	r11, r24
 820:	08 c0       	rjmp	.+16     	; 0x832 <vfprintf+0x290>
 822:	24 ff       	sbrs	r18, 4
 824:	09 c0       	rjmp	.+18     	; 0x838 <vfprintf+0x296>
 826:	e6 e0       	ldi	r30, 0x06	; 6
 828:	be 2a       	or	r11, r30
 82a:	06 c0       	rjmp	.+12     	; 0x838 <vfprintf+0x296>
 82c:	28 e0       	ldi	r18, 0x08	; 8
 82e:	30 e0       	ldi	r19, 0x00	; 0
 830:	05 c0       	rjmp	.+10     	; 0x83c <vfprintf+0x29a>
 832:	20 e1       	ldi	r18, 0x10	; 16
 834:	30 e0       	ldi	r19, 0x00	; 0
 836:	02 c0       	rjmp	.+4      	; 0x83c <vfprintf+0x29a>
 838:	20 e1       	ldi	r18, 0x10	; 16
 83a:	32 e0       	ldi	r19, 0x02	; 2
 83c:	f8 01       	movw	r30, r16
 83e:	b7 fe       	sbrs	r11, 7
 840:	07 c0       	rjmp	.+14     	; 0x850 <vfprintf+0x2ae>
 842:	60 81       	ld	r22, Z
 844:	71 81       	ldd	r23, Z+1	; 0x01
 846:	82 81       	ldd	r24, Z+2	; 0x02
 848:	93 81       	ldd	r25, Z+3	; 0x03
 84a:	0c 5f       	subi	r16, 0xFC	; 252
 84c:	1f 4f       	sbci	r17, 0xFF	; 255
 84e:	06 c0       	rjmp	.+12     	; 0x85c <vfprintf+0x2ba>
 850:	60 81       	ld	r22, Z
 852:	71 81       	ldd	r23, Z+1	; 0x01
 854:	80 e0       	ldi	r24, 0x00	; 0
 856:	90 e0       	ldi	r25, 0x00	; 0
 858:	0e 5f       	subi	r16, 0xFE	; 254
 85a:	1f 4f       	sbci	r17, 0xFF	; 255
 85c:	a4 01       	movw	r20, r8
 85e:	0e 94 6c 07 	call	0xed8	; 0xed8 <__ultoa_invert>
 862:	a8 2e       	mov	r10, r24
 864:	a8 18       	sub	r10, r8
 866:	8f e7       	ldi	r24, 0x7F	; 127
 868:	68 2e       	mov	r6, r24
 86a:	6b 20       	and	r6, r11
 86c:	66 fe       	sbrs	r6, 6
 86e:	0b c0       	rjmp	.+22     	; 0x886 <vfprintf+0x2e4>
 870:	36 2d       	mov	r19, r6
 872:	3e 7f       	andi	r19, 0xFE	; 254
 874:	a7 14       	cp	r10, r7
 876:	50 f4       	brcc	.+20     	; 0x88c <vfprintf+0x2ea>
 878:	64 fe       	sbrs	r6, 4
 87a:	0a c0       	rjmp	.+20     	; 0x890 <vfprintf+0x2ee>
 87c:	62 fc       	sbrc	r6, 2
 87e:	08 c0       	rjmp	.+16     	; 0x890 <vfprintf+0x2ee>
 880:	36 2d       	mov	r19, r6
 882:	3e 7e       	andi	r19, 0xEE	; 238
 884:	05 c0       	rjmp	.+10     	; 0x890 <vfprintf+0x2ee>
 886:	ba 2c       	mov	r11, r10
 888:	36 2d       	mov	r19, r6
 88a:	03 c0       	rjmp	.+6      	; 0x892 <vfprintf+0x2f0>
 88c:	ba 2c       	mov	r11, r10
 88e:	01 c0       	rjmp	.+2      	; 0x892 <vfprintf+0x2f0>
 890:	b7 2c       	mov	r11, r7
 892:	34 ff       	sbrs	r19, 4
 894:	0d c0       	rjmp	.+26     	; 0x8b0 <vfprintf+0x30e>
 896:	fe 01       	movw	r30, r28
 898:	ea 0d       	add	r30, r10
 89a:	f1 1d       	adc	r31, r1
 89c:	80 81       	ld	r24, Z
 89e:	80 33       	cpi	r24, 0x30	; 48
 8a0:	11 f4       	brne	.+4      	; 0x8a6 <vfprintf+0x304>
 8a2:	39 7e       	andi	r19, 0xE9	; 233
 8a4:	09 c0       	rjmp	.+18     	; 0x8b8 <vfprintf+0x316>
 8a6:	32 ff       	sbrs	r19, 2
 8a8:	06 c0       	rjmp	.+12     	; 0x8b6 <vfprintf+0x314>
 8aa:	b3 94       	inc	r11
 8ac:	b3 94       	inc	r11
 8ae:	04 c0       	rjmp	.+8      	; 0x8b8 <vfprintf+0x316>
 8b0:	83 2f       	mov	r24, r19
 8b2:	86 78       	andi	r24, 0x86	; 134
 8b4:	09 f0       	breq	.+2      	; 0x8b8 <vfprintf+0x316>
 8b6:	b3 94       	inc	r11
 8b8:	33 fd       	sbrc	r19, 3
 8ba:	14 c0       	rjmp	.+40     	; 0x8e4 <vfprintf+0x342>
 8bc:	30 ff       	sbrs	r19, 0
 8be:	0f c0       	rjmp	.+30     	; 0x8de <vfprintf+0x33c>
 8c0:	7a 2c       	mov	r7, r10
 8c2:	b3 14       	cp	r11, r3
 8c4:	60 f4       	brcc	.+24     	; 0x8de <vfprintf+0x33c>
 8c6:	73 0c       	add	r7, r3
 8c8:	7b 18       	sub	r7, r11
 8ca:	b3 2c       	mov	r11, r3
 8cc:	08 c0       	rjmp	.+16     	; 0x8de <vfprintf+0x33c>
 8ce:	b7 01       	movw	r22, r14
 8d0:	80 e2       	ldi	r24, 0x20	; 32
 8d2:	90 e0       	ldi	r25, 0x00	; 0
 8d4:	3c 87       	std	Y+12, r19	; 0x0c
 8d6:	0e 94 40 07 	call	0xe80	; 0xe80 <fputc>
 8da:	b3 94       	inc	r11
 8dc:	3c 85       	ldd	r19, Y+12	; 0x0c
 8de:	b3 14       	cp	r11, r3
 8e0:	b0 f3       	brcs	.-20     	; 0x8ce <vfprintf+0x32c>
 8e2:	04 c0       	rjmp	.+8      	; 0x8ec <vfprintf+0x34a>
 8e4:	b3 14       	cp	r11, r3
 8e6:	10 f4       	brcc	.+4      	; 0x8ec <vfprintf+0x34a>
 8e8:	3b 18       	sub	r3, r11
 8ea:	01 c0       	rjmp	.+2      	; 0x8ee <vfprintf+0x34c>
 8ec:	31 2c       	mov	r3, r1
 8ee:	34 ff       	sbrs	r19, 4
 8f0:	12 c0       	rjmp	.+36     	; 0x916 <vfprintf+0x374>
 8f2:	b7 01       	movw	r22, r14
 8f4:	80 e3       	ldi	r24, 0x30	; 48
 8f6:	90 e0       	ldi	r25, 0x00	; 0
 8f8:	3c 87       	std	Y+12, r19	; 0x0c
 8fa:	0e 94 40 07 	call	0xe80	; 0xe80 <fputc>
 8fe:	3c 85       	ldd	r19, Y+12	; 0x0c
 900:	32 ff       	sbrs	r19, 2
 902:	1e c0       	rjmp	.+60     	; 0x940 <vfprintf+0x39e>
 904:	31 ff       	sbrs	r19, 1
 906:	03 c0       	rjmp	.+6      	; 0x90e <vfprintf+0x36c>
 908:	88 e5       	ldi	r24, 0x58	; 88
 90a:	90 e0       	ldi	r25, 0x00	; 0
 90c:	02 c0       	rjmp	.+4      	; 0x912 <vfprintf+0x370>
 90e:	88 e7       	ldi	r24, 0x78	; 120
 910:	90 e0       	ldi	r25, 0x00	; 0
 912:	b7 01       	movw	r22, r14
 914:	0c c0       	rjmp	.+24     	; 0x92e <vfprintf+0x38c>
 916:	83 2f       	mov	r24, r19
 918:	86 78       	andi	r24, 0x86	; 134
 91a:	91 f0       	breq	.+36     	; 0x940 <vfprintf+0x39e>
 91c:	31 fd       	sbrc	r19, 1
 91e:	02 c0       	rjmp	.+4      	; 0x924 <vfprintf+0x382>
 920:	80 e2       	ldi	r24, 0x20	; 32
 922:	01 c0       	rjmp	.+2      	; 0x926 <vfprintf+0x384>
 924:	8b e2       	ldi	r24, 0x2B	; 43
 926:	37 fd       	sbrc	r19, 7
 928:	8d e2       	ldi	r24, 0x2D	; 45
 92a:	b7 01       	movw	r22, r14
 92c:	90 e0       	ldi	r25, 0x00	; 0
 92e:	0e 94 40 07 	call	0xe80	; 0xe80 <fputc>
 932:	06 c0       	rjmp	.+12     	; 0x940 <vfprintf+0x39e>
 934:	b7 01       	movw	r22, r14
 936:	80 e3       	ldi	r24, 0x30	; 48
 938:	90 e0       	ldi	r25, 0x00	; 0
 93a:	0e 94 40 07 	call	0xe80	; 0xe80 <fputc>
 93e:	7a 94       	dec	r7
 940:	a7 14       	cp	r10, r7
 942:	c0 f3       	brcs	.-16     	; 0x934 <vfprintf+0x392>
 944:	aa 94       	dec	r10
 946:	f4 01       	movw	r30, r8
 948:	ea 0d       	add	r30, r10
 94a:	f1 1d       	adc	r31, r1
 94c:	b7 01       	movw	r22, r14
 94e:	80 81       	ld	r24, Z
 950:	90 e0       	ldi	r25, 0x00	; 0
 952:	0e 94 40 07 	call	0xe80	; 0xe80 <fputc>
 956:	a1 10       	cpse	r10, r1
 958:	f5 cf       	rjmp	.-22     	; 0x944 <vfprintf+0x3a2>
 95a:	06 c0       	rjmp	.+12     	; 0x968 <vfprintf+0x3c6>
 95c:	b7 01       	movw	r22, r14
 95e:	80 e2       	ldi	r24, 0x20	; 32
 960:	90 e0       	ldi	r25, 0x00	; 0
 962:	0e 94 40 07 	call	0xe80	; 0xe80 <fputc>
 966:	3a 94       	dec	r3
 968:	31 10       	cpse	r3, r1
 96a:	f8 cf       	rjmp	.-16     	; 0x95c <vfprintf+0x3ba>
 96c:	42 ce       	rjmp	.-892    	; 0x5f2 <vfprintf+0x50>
 96e:	f7 01       	movw	r30, r14
 970:	26 81       	ldd	r18, Z+6	; 0x06
 972:	37 81       	ldd	r19, Z+7	; 0x07
 974:	02 c0       	rjmp	.+4      	; 0x97a <vfprintf+0x3d8>
 976:	2f ef       	ldi	r18, 0xFF	; 255
 978:	3f ef       	ldi	r19, 0xFF	; 255
 97a:	c9 01       	movw	r24, r18
 97c:	2c 96       	adiw	r28, 0x0c	; 12
 97e:	0f b6       	in	r0, 0x3f	; 63
 980:	f8 94       	cli
 982:	de bf       	out	0x3e, r29	; 62
 984:	0f be       	out	0x3f, r0	; 63
 986:	cd bf       	out	0x3d, r28	; 61
 988:	df 91       	pop	r29
 98a:	cf 91       	pop	r28
 98c:	1f 91       	pop	r17
 98e:	0f 91       	pop	r16
 990:	ff 90       	pop	r15
 992:	ef 90       	pop	r14
 994:	df 90       	pop	r13
 996:	cf 90       	pop	r12
 998:	bf 90       	pop	r11
 99a:	af 90       	pop	r10
 99c:	9f 90       	pop	r9
 99e:	8f 90       	pop	r8
 9a0:	7f 90       	pop	r7
 9a2:	6f 90       	pop	r6
 9a4:	5f 90       	pop	r5
 9a6:	4f 90       	pop	r4
 9a8:	3f 90       	pop	r3
 9aa:	2f 90       	pop	r2
 9ac:	08 95       	ret

000009ae <dtoa_prf>:
 9ae:	6f 92       	push	r6
 9b0:	7f 92       	push	r7
 9b2:	9f 92       	push	r9
 9b4:	af 92       	push	r10
 9b6:	bf 92       	push	r11
 9b8:	cf 92       	push	r12
 9ba:	df 92       	push	r13
 9bc:	ef 92       	push	r14
 9be:	ff 92       	push	r15
 9c0:	0f 93       	push	r16
 9c2:	1f 93       	push	r17
 9c4:	cf 93       	push	r28
 9c6:	df 93       	push	r29
 9c8:	cd b7       	in	r28, 0x3d	; 61
 9ca:	de b7       	in	r29, 0x3e	; 62
 9cc:	29 97       	sbiw	r28, 0x09	; 9
 9ce:	0f b6       	in	r0, 0x3f	; 63
 9d0:	f8 94       	cli
 9d2:	de bf       	out	0x3e, r29	; 62
 9d4:	0f be       	out	0x3f, r0	; 63
 9d6:	cd bf       	out	0x3d, r28	; 61
 9d8:	6a 01       	movw	r12, r20
 9da:	b2 2e       	mov	r11, r18
 9dc:	10 2f       	mov	r17, r16
 9de:	0c 33       	cpi	r16, 0x3C	; 60
 9e0:	18 f4       	brcc	.+6      	; 0x9e8 <dtoa_prf+0x3a>
 9e2:	f0 2e       	mov	r15, r16
 9e4:	f3 94       	inc	r15
 9e6:	02 c0       	rjmp	.+4      	; 0x9ec <dtoa_prf+0x3e>
 9e8:	ac e3       	ldi	r26, 0x3C	; 60
 9ea:	fa 2e       	mov	r15, r26
 9ec:	0f 2d       	mov	r16, r15
 9ee:	27 e0       	ldi	r18, 0x07	; 7
 9f0:	ae 01       	movw	r20, r28
 9f2:	4f 5f       	subi	r20, 0xFF	; 255
 9f4:	5f 4f       	sbci	r21, 0xFF	; 255
 9f6:	0e 94 52 06 	call	0xca4	; 0xca4 <__ftoa_engine>
 9fa:	b9 81       	ldd	r27, Y+1	; 0x01
 9fc:	2b 2f       	mov	r18, r27
 9fe:	29 70       	andi	r18, 0x09	; 9
 a00:	21 30       	cpi	r18, 0x01	; 1
 a02:	31 f0       	breq	.+12     	; 0xa10 <dtoa_prf+0x62>
 a04:	e1 fc       	sbrc	r14, 1
 a06:	06 c0       	rjmp	.+12     	; 0xa14 <dtoa_prf+0x66>
 a08:	e0 fe       	sbrs	r14, 0
 a0a:	06 c0       	rjmp	.+12     	; 0xa18 <dtoa_prf+0x6a>
 a0c:	a0 e2       	ldi	r26, 0x20	; 32
 a0e:	05 c0       	rjmp	.+10     	; 0xa1a <dtoa_prf+0x6c>
 a10:	ad e2       	ldi	r26, 0x2D	; 45
 a12:	03 c0       	rjmp	.+6      	; 0xa1a <dtoa_prf+0x6c>
 a14:	ab e2       	ldi	r26, 0x2B	; 43
 a16:	01 c0       	rjmp	.+2      	; 0xa1a <dtoa_prf+0x6c>
 a18:	a0 e0       	ldi	r26, 0x00	; 0
 a1a:	b3 ff       	sbrs	r27, 3
 a1c:	3d c0       	rjmp	.+122    	; 0xa98 <dtoa_prf+0xea>
 a1e:	aa 23       	and	r26, r26
 a20:	11 f0       	breq	.+4      	; 0xa26 <dtoa_prf+0x78>
 a22:	84 e0       	ldi	r24, 0x04	; 4
 a24:	01 c0       	rjmp	.+2      	; 0xa28 <dtoa_prf+0x7a>
 a26:	83 e0       	ldi	r24, 0x03	; 3
 a28:	8b 15       	cp	r24, r11
 a2a:	10 f4       	brcc	.+4      	; 0xa30 <dtoa_prf+0x82>
 a2c:	b8 1a       	sub	r11, r24
 a2e:	01 c0       	rjmp	.+2      	; 0xa32 <dtoa_prf+0x84>
 a30:	b1 2c       	mov	r11, r1
 a32:	e4 fc       	sbrc	r14, 4
 a34:	0b c0       	rjmp	.+22     	; 0xa4c <dtoa_prf+0x9e>
 a36:	8b 2d       	mov	r24, r11
 a38:	f6 01       	movw	r30, r12
 a3a:	90 e2       	ldi	r25, 0x20	; 32
 a3c:	02 c0       	rjmp	.+4      	; 0xa42 <dtoa_prf+0x94>
 a3e:	91 93       	st	Z+, r25
 a40:	81 50       	subi	r24, 0x01	; 1
 a42:	81 11       	cpse	r24, r1
 a44:	fc cf       	rjmp	.-8      	; 0xa3e <dtoa_prf+0x90>
 a46:	cb 0c       	add	r12, r11
 a48:	d1 1c       	adc	r13, r1
 a4a:	b1 2c       	mov	r11, r1
 a4c:	aa 23       	and	r26, r26
 a4e:	19 f0       	breq	.+6      	; 0xa56 <dtoa_prf+0xa8>
 a50:	f6 01       	movw	r30, r12
 a52:	a1 93       	st	Z+, r26
 a54:	6f 01       	movw	r12, r30
 a56:	e2 fe       	sbrs	r14, 2
 a58:	0d c0       	rjmp	.+26     	; 0xa74 <dtoa_prf+0xc6>
 a5a:	8e e4       	ldi	r24, 0x4E	; 78
 a5c:	d6 01       	movw	r26, r12
 a5e:	8c 93       	st	X, r24
 a60:	91 e4       	ldi	r25, 0x41	; 65
 a62:	11 96       	adiw	r26, 0x01	; 1
 a64:	9c 93       	st	X, r25
 a66:	11 97       	sbiw	r26, 0x01	; 1
 a68:	12 96       	adiw	r26, 0x02	; 2
 a6a:	8c 93       	st	X, r24
 a6c:	b3 e0       	ldi	r27, 0x03	; 3
 a6e:	cb 0e       	add	r12, r27
 a70:	d1 1c       	adc	r13, r1
 a72:	09 c0       	rjmp	.+18     	; 0xa86 <dtoa_prf+0xd8>
 a74:	8e e6       	ldi	r24, 0x6E	; 110
 a76:	f6 01       	movw	r30, r12
 a78:	80 83       	st	Z, r24
 a7a:	91 e6       	ldi	r25, 0x61	; 97
 a7c:	91 83       	std	Z+1, r25	; 0x01
 a7e:	82 83       	std	Z+2, r24	; 0x02
 a80:	f3 e0       	ldi	r31, 0x03	; 3
 a82:	cf 0e       	add	r12, r31
 a84:	d1 1c       	adc	r13, r1
 a86:	8b 2d       	mov	r24, r11
 a88:	f6 01       	movw	r30, r12
 a8a:	90 e2       	ldi	r25, 0x20	; 32
 a8c:	02 c0       	rjmp	.+4      	; 0xa92 <dtoa_prf+0xe4>
 a8e:	91 93       	st	Z+, r25
 a90:	81 50       	subi	r24, 0x01	; 1
 a92:	81 11       	cpse	r24, r1
 a94:	fc cf       	rjmp	.-8      	; 0xa8e <dtoa_prf+0xe0>
 a96:	40 c0       	rjmp	.+128    	; 0xb18 <dtoa_prf+0x16a>
 a98:	b2 ff       	sbrs	r27, 2
 a9a:	45 c0       	rjmp	.+138    	; 0xb26 <dtoa_prf+0x178>
 a9c:	aa 23       	and	r26, r26
 a9e:	11 f0       	breq	.+4      	; 0xaa4 <dtoa_prf+0xf6>
 aa0:	84 e0       	ldi	r24, 0x04	; 4
 aa2:	01 c0       	rjmp	.+2      	; 0xaa6 <dtoa_prf+0xf8>
 aa4:	83 e0       	ldi	r24, 0x03	; 3
 aa6:	8b 15       	cp	r24, r11
 aa8:	10 f4       	brcc	.+4      	; 0xaae <dtoa_prf+0x100>
 aaa:	b8 1a       	sub	r11, r24
 aac:	01 c0       	rjmp	.+2      	; 0xab0 <dtoa_prf+0x102>
 aae:	b1 2c       	mov	r11, r1
 ab0:	e4 fc       	sbrc	r14, 4
 ab2:	0b c0       	rjmp	.+22     	; 0xaca <dtoa_prf+0x11c>
 ab4:	8b 2d       	mov	r24, r11
 ab6:	f6 01       	movw	r30, r12
 ab8:	90 e2       	ldi	r25, 0x20	; 32
 aba:	02 c0       	rjmp	.+4      	; 0xac0 <dtoa_prf+0x112>
 abc:	91 93       	st	Z+, r25
 abe:	81 50       	subi	r24, 0x01	; 1
 ac0:	81 11       	cpse	r24, r1
 ac2:	fc cf       	rjmp	.-8      	; 0xabc <dtoa_prf+0x10e>
 ac4:	cb 0c       	add	r12, r11
 ac6:	d1 1c       	adc	r13, r1
 ac8:	b1 2c       	mov	r11, r1
 aca:	aa 23       	and	r26, r26
 acc:	19 f0       	breq	.+6      	; 0xad4 <dtoa_prf+0x126>
 ace:	f6 01       	movw	r30, r12
 ad0:	a1 93       	st	Z+, r26
 ad2:	6f 01       	movw	r12, r30
 ad4:	e2 fe       	sbrs	r14, 2
 ad6:	0e c0       	rjmp	.+28     	; 0xaf4 <dtoa_prf+0x146>
 ad8:	89 e4       	ldi	r24, 0x49	; 73
 ada:	d6 01       	movw	r26, r12
 adc:	8c 93       	st	X, r24
 ade:	8e e4       	ldi	r24, 0x4E	; 78
 ae0:	11 96       	adiw	r26, 0x01	; 1
 ae2:	8c 93       	st	X, r24
 ae4:	11 97       	sbiw	r26, 0x01	; 1
 ae6:	86 e4       	ldi	r24, 0x46	; 70
 ae8:	12 96       	adiw	r26, 0x02	; 2
 aea:	8c 93       	st	X, r24
 aec:	b3 e0       	ldi	r27, 0x03	; 3
 aee:	cb 0e       	add	r12, r27
 af0:	d1 1c       	adc	r13, r1
 af2:	0a c0       	rjmp	.+20     	; 0xb08 <dtoa_prf+0x15a>
 af4:	89 e6       	ldi	r24, 0x69	; 105
 af6:	f6 01       	movw	r30, r12
 af8:	80 83       	st	Z, r24
 afa:	8e e6       	ldi	r24, 0x6E	; 110
 afc:	81 83       	std	Z+1, r24	; 0x01
 afe:	86 e6       	ldi	r24, 0x66	; 102
 b00:	82 83       	std	Z+2, r24	; 0x02
 b02:	f3 e0       	ldi	r31, 0x03	; 3
 b04:	cf 0e       	add	r12, r31
 b06:	d1 1c       	adc	r13, r1
 b08:	8b 2d       	mov	r24, r11
 b0a:	f6 01       	movw	r30, r12
 b0c:	90 e2       	ldi	r25, 0x20	; 32
 b0e:	02 c0       	rjmp	.+4      	; 0xb14 <dtoa_prf+0x166>
 b10:	91 93       	st	Z+, r25
 b12:	81 50       	subi	r24, 0x01	; 1
 b14:	81 11       	cpse	r24, r1
 b16:	fc cf       	rjmp	.-8      	; 0xb10 <dtoa_prf+0x162>
 b18:	f6 01       	movw	r30, r12
 b1a:	eb 0d       	add	r30, r11
 b1c:	f1 1d       	adc	r31, r1
 b1e:	10 82       	st	Z, r1
 b20:	2e ef       	ldi	r18, 0xFE	; 254
 b22:	3f ef       	ldi	r19, 0xFF	; 255
 b24:	aa c0       	rjmp	.+340    	; 0xc7a <dtoa_prf+0x2cc>
 b26:	01 e0       	ldi	r16, 0x01	; 1
 b28:	a1 11       	cpse	r26, r1
 b2a:	01 c0       	rjmp	.+2      	; 0xb2e <dtoa_prf+0x180>
 b2c:	00 e0       	ldi	r16, 0x00	; 0
 b2e:	20 2f       	mov	r18, r16
 b30:	30 e0       	ldi	r19, 0x00	; 0
 b32:	18 16       	cp	r1, r24
 b34:	19 06       	cpc	r1, r25
 b36:	24 f4       	brge	.+8      	; 0xb40 <dtoa_prf+0x192>
 b38:	ac 01       	movw	r20, r24
 b3a:	4f 5f       	subi	r20, 0xFF	; 255
 b3c:	5f 4f       	sbci	r21, 0xFF	; 255
 b3e:	02 c0       	rjmp	.+4      	; 0xb44 <dtoa_prf+0x196>
 b40:	41 e0       	ldi	r20, 0x01	; 1
 b42:	50 e0       	ldi	r21, 0x00	; 0
 b44:	42 0f       	add	r20, r18
 b46:	53 1f       	adc	r21, r19
 b48:	11 23       	and	r17, r17
 b4a:	29 f0       	breq	.+10     	; 0xb56 <dtoa_prf+0x1a8>
 b4c:	61 2f       	mov	r22, r17
 b4e:	70 e0       	ldi	r23, 0x00	; 0
 b50:	6f 5f       	subi	r22, 0xFF	; 255
 b52:	7f 4f       	sbci	r23, 0xFF	; 255
 b54:	02 c0       	rjmp	.+4      	; 0xb5a <dtoa_prf+0x1ac>
 b56:	60 e0       	ldi	r22, 0x00	; 0
 b58:	70 e0       	ldi	r23, 0x00	; 0
 b5a:	46 0f       	add	r20, r22
 b5c:	57 1f       	adc	r21, r23
 b5e:	6b 2d       	mov	r22, r11
 b60:	70 e0       	ldi	r23, 0x00	; 0
 b62:	46 17       	cp	r20, r22
 b64:	57 07       	cpc	r21, r23
 b66:	14 f4       	brge	.+4      	; 0xb6c <dtoa_prf+0x1be>
 b68:	b4 1a       	sub	r11, r20
 b6a:	01 c0       	rjmp	.+2      	; 0xb6e <dtoa_prf+0x1c0>
 b6c:	b1 2c       	mov	r11, r1
 b6e:	3e 2d       	mov	r19, r14
 b70:	30 71       	andi	r19, 0x10	; 16
 b72:	e4 fc       	sbrc	r14, 4
 b74:	0d c0       	rjmp	.+26     	; 0xb90 <dtoa_prf+0x1e2>
 b76:	e3 fc       	sbrc	r14, 3
 b78:	0b c0       	rjmp	.+22     	; 0xb90 <dtoa_prf+0x1e2>
 b7a:	2b 2d       	mov	r18, r11
 b7c:	f6 01       	movw	r30, r12
 b7e:	40 e2       	ldi	r20, 0x20	; 32
 b80:	02 c0       	rjmp	.+4      	; 0xb86 <dtoa_prf+0x1d8>
 b82:	41 93       	st	Z+, r20
 b84:	21 50       	subi	r18, 0x01	; 1
 b86:	21 11       	cpse	r18, r1
 b88:	fc cf       	rjmp	.-8      	; 0xb82 <dtoa_prf+0x1d4>
 b8a:	cb 0c       	add	r12, r11
 b8c:	d1 1c       	adc	r13, r1
 b8e:	b1 2c       	mov	r11, r1
 b90:	00 23       	and	r16, r16
 b92:	19 f0       	breq	.+6      	; 0xb9a <dtoa_prf+0x1ec>
 b94:	f6 01       	movw	r30, r12
 b96:	a1 93       	st	Z+, r26
 b98:	6f 01       	movw	r12, r30
 b9a:	31 11       	cpse	r19, r1
 b9c:	0b c0       	rjmp	.+22     	; 0xbb4 <dtoa_prf+0x206>
 b9e:	2b 2d       	mov	r18, r11
 ba0:	f6 01       	movw	r30, r12
 ba2:	30 e3       	ldi	r19, 0x30	; 48
 ba4:	02 c0       	rjmp	.+4      	; 0xbaa <dtoa_prf+0x1fc>
 ba6:	31 93       	st	Z+, r19
 ba8:	21 50       	subi	r18, 0x01	; 1
 baa:	21 11       	cpse	r18, r1
 bac:	fc cf       	rjmp	.-8      	; 0xba6 <dtoa_prf+0x1f8>
 bae:	cb 0c       	add	r12, r11
 bb0:	d1 1c       	adc	r13, r1
 bb2:	b1 2c       	mov	r11, r1
 bb4:	f8 0e       	add	r15, r24
 bb6:	3a 81       	ldd	r19, Y+2	; 0x02
 bb8:	f0 e1       	ldi	r31, 0x10	; 16
 bba:	af 2e       	mov	r10, r31
 bbc:	ab 22       	and	r10, r27
 bbe:	b4 ff       	sbrs	r27, 4
 bc0:	03 c0       	rjmp	.+6      	; 0xbc8 <dtoa_prf+0x21a>
 bc2:	31 33       	cpi	r19, 0x31	; 49
 bc4:	09 f4       	brne	.+2      	; 0xbc8 <dtoa_prf+0x21a>
 bc6:	fa 94       	dec	r15
 bc8:	1f 14       	cp	r1, r15
 bca:	2c f4       	brge	.+10     	; 0xbd6 <dtoa_prf+0x228>
 bcc:	2f 2d       	mov	r18, r15
 bce:	29 30       	cpi	r18, 0x09	; 9
 bd0:	18 f0       	brcs	.+6      	; 0xbd8 <dtoa_prf+0x22a>
 bd2:	28 e0       	ldi	r18, 0x08	; 8
 bd4:	01 c0       	rjmp	.+2      	; 0xbd8 <dtoa_prf+0x22a>
 bd6:	21 e0       	ldi	r18, 0x01	; 1
 bd8:	ac 01       	movw	r20, r24
 bda:	97 ff       	sbrs	r25, 7
 bdc:	02 c0       	rjmp	.+4      	; 0xbe2 <dtoa_prf+0x234>
 bde:	40 e0       	ldi	r20, 0x00	; 0
 be0:	50 e0       	ldi	r21, 0x00	; 0
 be2:	60 e0       	ldi	r22, 0x00	; 0
 be4:	70 e0       	ldi	r23, 0x00	; 0
 be6:	ee e2       	ldi	r30, 0x2E	; 46
 be8:	9e 2e       	mov	r9, r30
 bea:	3c 01       	movw	r6, r24
 bec:	62 1a       	sub	r6, r18
 bee:	71 08       	sbc	r7, r1
 bf0:	7c 01       	movw	r14, r24
 bf2:	e4 1a       	sub	r14, r20
 bf4:	f5 0a       	sbc	r15, r21
 bf6:	fe 01       	movw	r30, r28
 bf8:	31 96       	adiw	r30, 0x01	; 1
 bfa:	ee 0d       	add	r30, r14
 bfc:	ff 1d       	adc	r31, r15
 bfe:	01 2f       	mov	r16, r17
 c00:	10 e0       	ldi	r17, 0x00	; 0
 c02:	11 95       	neg	r17
 c04:	01 95       	neg	r16
 c06:	11 09       	sbc	r17, r1
 c08:	4f 3f       	cpi	r20, 0xFF	; 255
 c0a:	2f ef       	ldi	r18, 0xFF	; 255
 c0c:	52 07       	cpc	r21, r18
 c0e:	19 f4       	brne	.+6      	; 0xc16 <dtoa_prf+0x268>
 c10:	d6 01       	movw	r26, r12
 c12:	9d 92       	st	X+, r9
 c14:	6d 01       	movw	r12, r26
 c16:	84 17       	cp	r24, r20
 c18:	95 07       	cpc	r25, r21
 c1a:	54 f0       	brlt	.+20     	; 0xc30 <dtoa_prf+0x282>
 c1c:	64 16       	cp	r6, r20
 c1e:	75 06       	cpc	r7, r21
 c20:	3c f4       	brge	.+14     	; 0xc30 <dtoa_prf+0x282>
 c22:	7f 01       	movw	r14, r30
 c24:	e6 0e       	add	r14, r22
 c26:	f7 1e       	adc	r15, r23
 c28:	d7 01       	movw	r26, r14
 c2a:	11 96       	adiw	r26, 0x01	; 1
 c2c:	2c 91       	ld	r18, X
 c2e:	01 c0       	rjmp	.+2      	; 0xc32 <dtoa_prf+0x284>
 c30:	20 e3       	ldi	r18, 0x30	; 48
 c32:	41 50       	subi	r20, 0x01	; 1
 c34:	51 09       	sbc	r21, r1
 c36:	6f 5f       	subi	r22, 0xFF	; 255
 c38:	7f 4f       	sbci	r23, 0xFF	; 255
 c3a:	40 17       	cp	r20, r16
 c3c:	51 07       	cpc	r21, r17
 c3e:	24 f0       	brlt	.+8      	; 0xc48 <dtoa_prf+0x29a>
 c40:	d6 01       	movw	r26, r12
 c42:	2d 93       	st	X+, r18
 c44:	6d 01       	movw	r12, r26
 c46:	e0 cf       	rjmp	.-64     	; 0xc08 <dtoa_prf+0x25a>
 c48:	48 17       	cp	r20, r24
 c4a:	59 07       	cpc	r21, r25
 c4c:	39 f4       	brne	.+14     	; 0xc5c <dtoa_prf+0x2ae>
 c4e:	36 33       	cpi	r19, 0x36	; 54
 c50:	20 f4       	brcc	.+8      	; 0xc5a <dtoa_prf+0x2ac>
 c52:	35 33       	cpi	r19, 0x35	; 53
 c54:	19 f4       	brne	.+6      	; 0xc5c <dtoa_prf+0x2ae>
 c56:	a1 10       	cpse	r10, r1
 c58:	01 c0       	rjmp	.+2      	; 0xc5c <dtoa_prf+0x2ae>
 c5a:	21 e3       	ldi	r18, 0x31	; 49
 c5c:	f6 01       	movw	r30, r12
 c5e:	21 93       	st	Z+, r18
 c60:	8b 2d       	mov	r24, r11
 c62:	df 01       	movw	r26, r30
 c64:	90 e2       	ldi	r25, 0x20	; 32
 c66:	02 c0       	rjmp	.+4      	; 0xc6c <dtoa_prf+0x2be>
 c68:	9d 93       	st	X+, r25
 c6a:	81 50       	subi	r24, 0x01	; 1
 c6c:	81 11       	cpse	r24, r1
 c6e:	fc cf       	rjmp	.-8      	; 0xc68 <dtoa_prf+0x2ba>
 c70:	eb 0d       	add	r30, r11
 c72:	f1 1d       	adc	r31, r1
 c74:	10 82       	st	Z, r1
 c76:	20 e0       	ldi	r18, 0x00	; 0
 c78:	30 e0       	ldi	r19, 0x00	; 0
 c7a:	c9 01       	movw	r24, r18
 c7c:	29 96       	adiw	r28, 0x09	; 9
 c7e:	0f b6       	in	r0, 0x3f	; 63
 c80:	f8 94       	cli
 c82:	de bf       	out	0x3e, r29	; 62
 c84:	0f be       	out	0x3f, r0	; 63
 c86:	cd bf       	out	0x3d, r28	; 61
 c88:	df 91       	pop	r29
 c8a:	cf 91       	pop	r28
 c8c:	1f 91       	pop	r17
 c8e:	0f 91       	pop	r16
 c90:	ff 90       	pop	r15
 c92:	ef 90       	pop	r14
 c94:	df 90       	pop	r13
 c96:	cf 90       	pop	r12
 c98:	bf 90       	pop	r11
 c9a:	af 90       	pop	r10
 c9c:	9f 90       	pop	r9
 c9e:	7f 90       	pop	r7
 ca0:	6f 90       	pop	r6
 ca2:	08 95       	ret

00000ca4 <__ftoa_engine>:
 ca4:	28 30       	cpi	r18, 0x08	; 8
 ca6:	08 f0       	brcs	.+2      	; 0xcaa <__ftoa_engine+0x6>
 ca8:	27 e0       	ldi	r18, 0x07	; 7
 caa:	33 27       	eor	r19, r19
 cac:	da 01       	movw	r26, r20
 cae:	99 0f       	add	r25, r25
 cb0:	31 1d       	adc	r19, r1
 cb2:	87 fd       	sbrc	r24, 7
 cb4:	91 60       	ori	r25, 0x01	; 1
 cb6:	00 96       	adiw	r24, 0x00	; 0
 cb8:	61 05       	cpc	r22, r1
 cba:	71 05       	cpc	r23, r1
 cbc:	39 f4       	brne	.+14     	; 0xccc <__ftoa_engine+0x28>
 cbe:	32 60       	ori	r19, 0x02	; 2
 cc0:	2e 5f       	subi	r18, 0xFE	; 254
 cc2:	3d 93       	st	X+, r19
 cc4:	30 e3       	ldi	r19, 0x30	; 48
 cc6:	2a 95       	dec	r18
 cc8:	e1 f7       	brne	.-8      	; 0xcc2 <__ftoa_engine+0x1e>
 cca:	08 95       	ret
 ccc:	9f 3f       	cpi	r25, 0xFF	; 255
 cce:	30 f0       	brcs	.+12     	; 0xcdc <__ftoa_engine+0x38>
 cd0:	80 38       	cpi	r24, 0x80	; 128
 cd2:	71 05       	cpc	r23, r1
 cd4:	61 05       	cpc	r22, r1
 cd6:	09 f0       	breq	.+2      	; 0xcda <__ftoa_engine+0x36>
 cd8:	3c 5f       	subi	r19, 0xFC	; 252
 cda:	3c 5f       	subi	r19, 0xFC	; 252
 cdc:	3d 93       	st	X+, r19
 cde:	91 30       	cpi	r25, 0x01	; 1
 ce0:	08 f0       	brcs	.+2      	; 0xce4 <__ftoa_engine+0x40>
 ce2:	80 68       	ori	r24, 0x80	; 128
 ce4:	91 1d       	adc	r25, r1
 ce6:	df 93       	push	r29
 ce8:	cf 93       	push	r28
 cea:	1f 93       	push	r17
 cec:	0f 93       	push	r16
 cee:	ff 92       	push	r15
 cf0:	ef 92       	push	r14
 cf2:	19 2f       	mov	r17, r25
 cf4:	98 7f       	andi	r25, 0xF8	; 248
 cf6:	96 95       	lsr	r25
 cf8:	e9 2f       	mov	r30, r25
 cfa:	96 95       	lsr	r25
 cfc:	96 95       	lsr	r25
 cfe:	e9 0f       	add	r30, r25
 d00:	ff 27       	eor	r31, r31
 d02:	e2 5c       	subi	r30, 0xC2	; 194
 d04:	fe 4f       	sbci	r31, 0xFE	; 254
 d06:	99 27       	eor	r25, r25
 d08:	33 27       	eor	r19, r19
 d0a:	ee 24       	eor	r14, r14
 d0c:	ff 24       	eor	r15, r15
 d0e:	a7 01       	movw	r20, r14
 d10:	e7 01       	movw	r28, r14
 d12:	05 90       	lpm	r0, Z+
 d14:	08 94       	sec
 d16:	07 94       	ror	r0
 d18:	28 f4       	brcc	.+10     	; 0xd24 <__ftoa_engine+0x80>
 d1a:	36 0f       	add	r19, r22
 d1c:	e7 1e       	adc	r14, r23
 d1e:	f8 1e       	adc	r15, r24
 d20:	49 1f       	adc	r20, r25
 d22:	51 1d       	adc	r21, r1
 d24:	66 0f       	add	r22, r22
 d26:	77 1f       	adc	r23, r23
 d28:	88 1f       	adc	r24, r24
 d2a:	99 1f       	adc	r25, r25
 d2c:	06 94       	lsr	r0
 d2e:	a1 f7       	brne	.-24     	; 0xd18 <__ftoa_engine+0x74>
 d30:	05 90       	lpm	r0, Z+
 d32:	07 94       	ror	r0
 d34:	28 f4       	brcc	.+10     	; 0xd40 <__ftoa_engine+0x9c>
 d36:	e7 0e       	add	r14, r23
 d38:	f8 1e       	adc	r15, r24
 d3a:	49 1f       	adc	r20, r25
 d3c:	56 1f       	adc	r21, r22
 d3e:	c1 1d       	adc	r28, r1
 d40:	77 0f       	add	r23, r23
 d42:	88 1f       	adc	r24, r24
 d44:	99 1f       	adc	r25, r25
 d46:	66 1f       	adc	r22, r22
 d48:	06 94       	lsr	r0
 d4a:	a1 f7       	brne	.-24     	; 0xd34 <__ftoa_engine+0x90>
 d4c:	05 90       	lpm	r0, Z+
 d4e:	07 94       	ror	r0
 d50:	28 f4       	brcc	.+10     	; 0xd5c <__ftoa_engine+0xb8>
 d52:	f8 0e       	add	r15, r24
 d54:	49 1f       	adc	r20, r25
 d56:	56 1f       	adc	r21, r22
 d58:	c7 1f       	adc	r28, r23
 d5a:	d1 1d       	adc	r29, r1
 d5c:	88 0f       	add	r24, r24
 d5e:	99 1f       	adc	r25, r25
 d60:	66 1f       	adc	r22, r22
 d62:	77 1f       	adc	r23, r23
 d64:	06 94       	lsr	r0
 d66:	a1 f7       	brne	.-24     	; 0xd50 <__ftoa_engine+0xac>
 d68:	05 90       	lpm	r0, Z+
 d6a:	07 94       	ror	r0
 d6c:	20 f4       	brcc	.+8      	; 0xd76 <__ftoa_engine+0xd2>
 d6e:	49 0f       	add	r20, r25
 d70:	56 1f       	adc	r21, r22
 d72:	c7 1f       	adc	r28, r23
 d74:	d8 1f       	adc	r29, r24
 d76:	99 0f       	add	r25, r25
 d78:	66 1f       	adc	r22, r22
 d7a:	77 1f       	adc	r23, r23
 d7c:	88 1f       	adc	r24, r24
 d7e:	06 94       	lsr	r0
 d80:	a9 f7       	brne	.-22     	; 0xd6c <__ftoa_engine+0xc8>
 d82:	84 91       	lpm	r24, Z+
 d84:	10 95       	com	r17
 d86:	17 70       	andi	r17, 0x07	; 7
 d88:	41 f0       	breq	.+16     	; 0xd9a <__ftoa_engine+0xf6>
 d8a:	d6 95       	lsr	r29
 d8c:	c7 95       	ror	r28
 d8e:	57 95       	ror	r21
 d90:	47 95       	ror	r20
 d92:	f7 94       	ror	r15
 d94:	e7 94       	ror	r14
 d96:	1a 95       	dec	r17
 d98:	c1 f7       	brne	.-16     	; 0xd8a <__ftoa_engine+0xe6>
 d9a:	e4 ee       	ldi	r30, 0xE4	; 228
 d9c:	f0 e0       	ldi	r31, 0x00	; 0
 d9e:	68 94       	set
 da0:	15 90       	lpm	r1, Z+
 da2:	15 91       	lpm	r17, Z+
 da4:	35 91       	lpm	r19, Z+
 da6:	65 91       	lpm	r22, Z+
 da8:	95 91       	lpm	r25, Z+
 daa:	05 90       	lpm	r0, Z+
 dac:	7f e2       	ldi	r23, 0x2F	; 47
 dae:	73 95       	inc	r23
 db0:	e1 18       	sub	r14, r1
 db2:	f1 0a       	sbc	r15, r17
 db4:	43 0b       	sbc	r20, r19
 db6:	56 0b       	sbc	r21, r22
 db8:	c9 0b       	sbc	r28, r25
 dba:	d0 09       	sbc	r29, r0
 dbc:	c0 f7       	brcc	.-16     	; 0xdae <__ftoa_engine+0x10a>
 dbe:	e1 0c       	add	r14, r1
 dc0:	f1 1e       	adc	r15, r17
 dc2:	43 1f       	adc	r20, r19
 dc4:	56 1f       	adc	r21, r22
 dc6:	c9 1f       	adc	r28, r25
 dc8:	d0 1d       	adc	r29, r0
 dca:	7e f4       	brtc	.+30     	; 0xdea <__ftoa_engine+0x146>
 dcc:	70 33       	cpi	r23, 0x30	; 48
 dce:	11 f4       	brne	.+4      	; 0xdd4 <__ftoa_engine+0x130>
 dd0:	8a 95       	dec	r24
 dd2:	e6 cf       	rjmp	.-52     	; 0xda0 <__ftoa_engine+0xfc>
 dd4:	e8 94       	clt
 dd6:	01 50       	subi	r16, 0x01	; 1
 dd8:	30 f0       	brcs	.+12     	; 0xde6 <__ftoa_engine+0x142>
 dda:	08 0f       	add	r16, r24
 ddc:	0a f4       	brpl	.+2      	; 0xde0 <__ftoa_engine+0x13c>
 dde:	00 27       	eor	r16, r16
 de0:	02 17       	cp	r16, r18
 de2:	08 f4       	brcc	.+2      	; 0xde6 <__ftoa_engine+0x142>
 de4:	20 2f       	mov	r18, r16
 de6:	23 95       	inc	r18
 de8:	02 2f       	mov	r16, r18
 dea:	7a 33       	cpi	r23, 0x3A	; 58
 dec:	28 f0       	brcs	.+10     	; 0xdf8 <__ftoa_engine+0x154>
 dee:	79 e3       	ldi	r23, 0x39	; 57
 df0:	7d 93       	st	X+, r23
 df2:	2a 95       	dec	r18
 df4:	e9 f7       	brne	.-6      	; 0xdf0 <__ftoa_engine+0x14c>
 df6:	10 c0       	rjmp	.+32     	; 0xe18 <__ftoa_engine+0x174>
 df8:	7d 93       	st	X+, r23
 dfa:	2a 95       	dec	r18
 dfc:	89 f6       	brne	.-94     	; 0xda0 <__ftoa_engine+0xfc>
 dfe:	06 94       	lsr	r0
 e00:	97 95       	ror	r25
 e02:	67 95       	ror	r22
 e04:	37 95       	ror	r19
 e06:	17 95       	ror	r17
 e08:	17 94       	ror	r1
 e0a:	e1 18       	sub	r14, r1
 e0c:	f1 0a       	sbc	r15, r17
 e0e:	43 0b       	sbc	r20, r19
 e10:	56 0b       	sbc	r21, r22
 e12:	c9 0b       	sbc	r28, r25
 e14:	d0 09       	sbc	r29, r0
 e16:	98 f0       	brcs	.+38     	; 0xe3e <__ftoa_engine+0x19a>
 e18:	23 95       	inc	r18
 e1a:	7e 91       	ld	r23, -X
 e1c:	73 95       	inc	r23
 e1e:	7a 33       	cpi	r23, 0x3A	; 58
 e20:	08 f0       	brcs	.+2      	; 0xe24 <__ftoa_engine+0x180>
 e22:	70 e3       	ldi	r23, 0x30	; 48
 e24:	7c 93       	st	X, r23
 e26:	20 13       	cpse	r18, r16
 e28:	b8 f7       	brcc	.-18     	; 0xe18 <__ftoa_engine+0x174>
 e2a:	7e 91       	ld	r23, -X
 e2c:	70 61       	ori	r23, 0x10	; 16
 e2e:	7d 93       	st	X+, r23
 e30:	30 f0       	brcs	.+12     	; 0xe3e <__ftoa_engine+0x19a>
 e32:	83 95       	inc	r24
 e34:	71 e3       	ldi	r23, 0x31	; 49
 e36:	7d 93       	st	X+, r23
 e38:	70 e3       	ldi	r23, 0x30	; 48
 e3a:	2a 95       	dec	r18
 e3c:	e1 f7       	brne	.-8      	; 0xe36 <__ftoa_engine+0x192>
 e3e:	11 24       	eor	r1, r1
 e40:	ef 90       	pop	r14
 e42:	ff 90       	pop	r15
 e44:	0f 91       	pop	r16
 e46:	1f 91       	pop	r17
 e48:	cf 91       	pop	r28
 e4a:	df 91       	pop	r29
 e4c:	99 27       	eor	r25, r25
 e4e:	87 fd       	sbrc	r24, 7
 e50:	90 95       	com	r25
 e52:	08 95       	ret

00000e54 <strnlen_P>:
 e54:	fc 01       	movw	r30, r24
 e56:	05 90       	lpm	r0, Z+
 e58:	61 50       	subi	r22, 0x01	; 1
 e5a:	70 40       	sbci	r23, 0x00	; 0
 e5c:	01 10       	cpse	r0, r1
 e5e:	d8 f7       	brcc	.-10     	; 0xe56 <strnlen_P+0x2>
 e60:	80 95       	com	r24
 e62:	90 95       	com	r25
 e64:	8e 0f       	add	r24, r30
 e66:	9f 1f       	adc	r25, r31
 e68:	08 95       	ret

00000e6a <strnlen>:
 e6a:	fc 01       	movw	r30, r24
 e6c:	61 50       	subi	r22, 0x01	; 1
 e6e:	70 40       	sbci	r23, 0x00	; 0
 e70:	01 90       	ld	r0, Z+
 e72:	01 10       	cpse	r0, r1
 e74:	d8 f7       	brcc	.-10     	; 0xe6c <strnlen+0x2>
 e76:	80 95       	com	r24
 e78:	90 95       	com	r25
 e7a:	8e 0f       	add	r24, r30
 e7c:	9f 1f       	adc	r25, r31
 e7e:	08 95       	ret

00000e80 <fputc>:
 e80:	0f 93       	push	r16
 e82:	1f 93       	push	r17
 e84:	cf 93       	push	r28
 e86:	df 93       	push	r29
 e88:	8c 01       	movw	r16, r24
 e8a:	eb 01       	movw	r28, r22
 e8c:	8b 81       	ldd	r24, Y+3	; 0x03
 e8e:	81 fd       	sbrc	r24, 1
 e90:	03 c0       	rjmp	.+6      	; 0xe98 <fputc+0x18>
 e92:	0f ef       	ldi	r16, 0xFF	; 255
 e94:	1f ef       	ldi	r17, 0xFF	; 255
 e96:	1a c0       	rjmp	.+52     	; 0xecc <fputc+0x4c>
 e98:	82 ff       	sbrs	r24, 2
 e9a:	0d c0       	rjmp	.+26     	; 0xeb6 <fputc+0x36>
 e9c:	2e 81       	ldd	r18, Y+6	; 0x06
 e9e:	3f 81       	ldd	r19, Y+7	; 0x07
 ea0:	8c 81       	ldd	r24, Y+4	; 0x04
 ea2:	9d 81       	ldd	r25, Y+5	; 0x05
 ea4:	28 17       	cp	r18, r24
 ea6:	39 07       	cpc	r19, r25
 ea8:	64 f4       	brge	.+24     	; 0xec2 <fputc+0x42>
 eaa:	e8 81       	ld	r30, Y
 eac:	f9 81       	ldd	r31, Y+1	; 0x01
 eae:	01 93       	st	Z+, r16
 eb0:	f9 83       	std	Y+1, r31	; 0x01
 eb2:	e8 83       	st	Y, r30
 eb4:	06 c0       	rjmp	.+12     	; 0xec2 <fputc+0x42>
 eb6:	e8 85       	ldd	r30, Y+8	; 0x08
 eb8:	f9 85       	ldd	r31, Y+9	; 0x09
 eba:	80 2f       	mov	r24, r16
 ebc:	19 95       	eicall
 ebe:	89 2b       	or	r24, r25
 ec0:	41 f7       	brne	.-48     	; 0xe92 <fputc+0x12>
 ec2:	8e 81       	ldd	r24, Y+6	; 0x06
 ec4:	9f 81       	ldd	r25, Y+7	; 0x07
 ec6:	01 96       	adiw	r24, 0x01	; 1
 ec8:	9f 83       	std	Y+7, r25	; 0x07
 eca:	8e 83       	std	Y+6, r24	; 0x06
 ecc:	c8 01       	movw	r24, r16
 ece:	df 91       	pop	r29
 ed0:	cf 91       	pop	r28
 ed2:	1f 91       	pop	r17
 ed4:	0f 91       	pop	r16
 ed6:	08 95       	ret

00000ed8 <__ultoa_invert>:
 ed8:	fa 01       	movw	r30, r20
 eda:	aa 27       	eor	r26, r26
 edc:	28 30       	cpi	r18, 0x08	; 8
 ede:	51 f1       	breq	.+84     	; 0xf34 <__ultoa_invert+0x5c>
 ee0:	20 31       	cpi	r18, 0x10	; 16
 ee2:	81 f1       	breq	.+96     	; 0xf44 <__ultoa_invert+0x6c>
 ee4:	e8 94       	clt
 ee6:	6f 93       	push	r22
 ee8:	6e 7f       	andi	r22, 0xFE	; 254
 eea:	6e 5f       	subi	r22, 0xFE	; 254
 eec:	7f 4f       	sbci	r23, 0xFF	; 255
 eee:	8f 4f       	sbci	r24, 0xFF	; 255
 ef0:	9f 4f       	sbci	r25, 0xFF	; 255
 ef2:	af 4f       	sbci	r26, 0xFF	; 255
 ef4:	b1 e0       	ldi	r27, 0x01	; 1
 ef6:	3e d0       	rcall	.+124    	; 0xf74 <__ultoa_invert+0x9c>
 ef8:	b4 e0       	ldi	r27, 0x04	; 4
 efa:	3c d0       	rcall	.+120    	; 0xf74 <__ultoa_invert+0x9c>
 efc:	67 0f       	add	r22, r23
 efe:	78 1f       	adc	r23, r24
 f00:	89 1f       	adc	r24, r25
 f02:	9a 1f       	adc	r25, r26
 f04:	a1 1d       	adc	r26, r1
 f06:	68 0f       	add	r22, r24
 f08:	79 1f       	adc	r23, r25
 f0a:	8a 1f       	adc	r24, r26
 f0c:	91 1d       	adc	r25, r1
 f0e:	a1 1d       	adc	r26, r1
 f10:	6a 0f       	add	r22, r26
 f12:	71 1d       	adc	r23, r1
 f14:	81 1d       	adc	r24, r1
 f16:	91 1d       	adc	r25, r1
 f18:	a1 1d       	adc	r26, r1
 f1a:	20 d0       	rcall	.+64     	; 0xf5c <__ultoa_invert+0x84>
 f1c:	09 f4       	brne	.+2      	; 0xf20 <__ultoa_invert+0x48>
 f1e:	68 94       	set
 f20:	3f 91       	pop	r19
 f22:	2a e0       	ldi	r18, 0x0A	; 10
 f24:	26 9f       	mul	r18, r22
 f26:	11 24       	eor	r1, r1
 f28:	30 19       	sub	r19, r0
 f2a:	30 5d       	subi	r19, 0xD0	; 208
 f2c:	31 93       	st	Z+, r19
 f2e:	de f6       	brtc	.-74     	; 0xee6 <__ultoa_invert+0xe>
 f30:	cf 01       	movw	r24, r30
 f32:	08 95       	ret
 f34:	46 2f       	mov	r20, r22
 f36:	47 70       	andi	r20, 0x07	; 7
 f38:	40 5d       	subi	r20, 0xD0	; 208
 f3a:	41 93       	st	Z+, r20
 f3c:	b3 e0       	ldi	r27, 0x03	; 3
 f3e:	0f d0       	rcall	.+30     	; 0xf5e <__ultoa_invert+0x86>
 f40:	c9 f7       	brne	.-14     	; 0xf34 <__ultoa_invert+0x5c>
 f42:	f6 cf       	rjmp	.-20     	; 0xf30 <__ultoa_invert+0x58>
 f44:	46 2f       	mov	r20, r22
 f46:	4f 70       	andi	r20, 0x0F	; 15
 f48:	40 5d       	subi	r20, 0xD0	; 208
 f4a:	4a 33       	cpi	r20, 0x3A	; 58
 f4c:	18 f0       	brcs	.+6      	; 0xf54 <__ultoa_invert+0x7c>
 f4e:	49 5d       	subi	r20, 0xD9	; 217
 f50:	31 fd       	sbrc	r19, 1
 f52:	40 52       	subi	r20, 0x20	; 32
 f54:	41 93       	st	Z+, r20
 f56:	02 d0       	rcall	.+4      	; 0xf5c <__ultoa_invert+0x84>
 f58:	a9 f7       	brne	.-22     	; 0xf44 <__ultoa_invert+0x6c>
 f5a:	ea cf       	rjmp	.-44     	; 0xf30 <__ultoa_invert+0x58>
 f5c:	b4 e0       	ldi	r27, 0x04	; 4
 f5e:	a6 95       	lsr	r26
 f60:	97 95       	ror	r25
 f62:	87 95       	ror	r24
 f64:	77 95       	ror	r23
 f66:	67 95       	ror	r22
 f68:	ba 95       	dec	r27
 f6a:	c9 f7       	brne	.-14     	; 0xf5e <__ultoa_invert+0x86>
 f6c:	00 97       	sbiw	r24, 0x00	; 0
 f6e:	61 05       	cpc	r22, r1
 f70:	71 05       	cpc	r23, r1
 f72:	08 95       	ret
 f74:	9b 01       	movw	r18, r22
 f76:	ac 01       	movw	r20, r24
 f78:	0a 2e       	mov	r0, r26
 f7a:	06 94       	lsr	r0
 f7c:	57 95       	ror	r21
 f7e:	47 95       	ror	r20
 f80:	37 95       	ror	r19
 f82:	27 95       	ror	r18
 f84:	ba 95       	dec	r27
 f86:	c9 f7       	brne	.-14     	; 0xf7a <__ultoa_invert+0xa2>
 f88:	62 0f       	add	r22, r18
 f8a:	73 1f       	adc	r23, r19
 f8c:	84 1f       	adc	r24, r20
 f8e:	95 1f       	adc	r25, r21
 f90:	a0 1d       	adc	r26, r0
 f92:	08 95       	ret

00000f94 <_exit>:
 f94:	f8 94       	cli

00000f96 <__stop_program>:
 f96:	ff cf       	rjmp	.-2      	; 0xf96 <__stop_program>
